Archive member included because of file (symbol)

c:/ICPDAS/HMIWorks_Standard/lib/commonlo.a(hmi.o)
                              _demarrage.o (hmi_FillRect)
c:/ICPDAS/HMIWorks_Standard/lib/commonlo.a(hmi_util.o)
                              _ConfigModule.o (FloatToStr)
c:/ICPDAS/HMIWorks_Standard/lib/commonlo.a(ladder2c.o)
                              _frame0.o (default_output)
c:/ICPDAS/HMIWorks_Standard/lib/commonlo.a(pvar.o)
                              _PavetNum.o (var_get)
c:/ICPDAS/HMIWorks_Standard/lib/commonlo.a(timer.o)
                              _demarrage.o (TimerMsgProc)
c:/ICPDAS/HMIWorks_Standard/lib/commonlo.a(usscanf.o)
                              c:/ICPDAS/HMIWorks_Standard/lib/commonlo.a(hmi_util.o) (usscanf)
c:/ICPDAS/HMIWorks_Standard/lib/commonlo.a(ustdlib.o)
                              c:/ICPDAS/HMIWorks_Standard/lib/commonlo.a(hmi_util.o) (usprintf)
c:/ICPDAS/HMIWorks_Standard/lib/commonlo.a(widget_init.o)
                              _frame0.o (g_sDisplayDriverROM)
c:/ICPDAS/HMIWorks_Standard/lib/libgr.a(canvas.o)
                              _demarrage.o (CanvasMsgProc)
c:/ICPDAS/HMIWorks_Standard/lib/libgr.a(checkbox.o)
                              _ConfigModule.o (CheckBoxPaint)
c:/ICPDAS/HMIWorks_Standard/lib/libgr.a(circle.o)
                              c:/ICPDAS/HMIWorks_Standard/lib/commonlo.a(hmi.o) (GrCircleDraw)
c:/ICPDAS/HMIWorks_Standard/lib/libgr.a(context.o)
                              _frame0.o (GrContextInit)
c:/ICPDAS/HMIWorks_Standard/lib/libgr.a(image.o)
                              c:/ICPDAS/HMIWorks_Standard/lib/libgr.a(canvas.o) (GrImageDraw)
c:/ICPDAS/HMIWorks_Standard/lib/libgr.a(line.o)
                              c:/ICPDAS/HMIWorks_Standard/lib/commonlo.a(hmi.o) (GrLineDrawH)
c:/ICPDAS/HMIWorks_Standard/lib/libgr.a(pushbutton.o)
                              _PavetNum.o (RectangularButtonMsgProc)
c:/ICPDAS/HMIWorks_Standard/lib/libgr.a(rectangle.o)
                              c:/ICPDAS/HMIWorks_Standard/lib/commonlo.a(hmi.o) (GrRectDraw)
c:/ICPDAS/HMIWorks_Standard/lib/libgr.a(string.o)
                              c:/ICPDAS/HMIWorks_Standard/lib/libgr.a(canvas.o) (GrStringWidthGet)
c:/ICPDAS/HMIWorks_Standard/lib/libgr.a(widget.o)
                              c:/ICPDAS/HMIWorks_Standard/lib/commonlo.a(timer.o) (WidgetDefaultMsgProc)
c:/ICPDAS/HMIWorks_Standard/lib/libgr.a(hmi_grlib.o)
                              _frame0.o (hmi_grlib_init)
c:/ICPDAS/HMIWorks_Standard/lib/fonts.a(fontcm18.o)
                              _PavetNum.o (g_sFontCm18)
c:/ICPDAS/HMIWorks_Standard/lib/fonts.a(fontcm18b.o)
                              _ConfigCapteur.o (g_sFontCm18b)
c:/ICPDAS/HMIWorks_Standard/lib/fonts.a(fontcm18i.o)
                              _Affichage.o (g_sFontCm18i)
c:/ICPDAS/HMIWorks_Standard/lib/fonts.a(fontcm20b.o)
                              _PavetNum.o (g_sFontCm20b)
c:/ICPDAS/HMIWorks_Standard/lib/fonts.a(fontcm22b.o)
                              _ConfigModule.o (g_sFontCm22b)
c:/ICPDAS/HMIWorks_Standard/lib/fonts.a(fontcm24b.o)
                              _Clavier.o (g_sFontCm24b)
c:/ICPDAS/HMIWorks_Standard/lib/fonts.a(fontcm26b.o)
                              _Alerte.o (g_sFontCm26b)
c:/ICPDAS/HMIWorks_Standard/lib/fonts.a(fontcm30b.o)
                              _demarrage.o (g_sFontCm30b)
c:/ICPDAS/HMIWorks_Standard/lib/fonts.a(fontcm42b.o)
                              _Affichage.o (g_sFontCm42b)
c:/ICPDAS/HMIWorks_Standard/lib/VPD-133.a(hmi_Init.o)
                              main.o (hmi_Init)
c:/ICPDAS/HMIWorks_Standard/lib/VPD-133.a(hmi_tcp.o)
                              c:/ICPDAS/HMIWorks_Standard/lib/VPD-133.a(hmi_Init.o) (hmi_tcp_init)
c:/ICPDAS/HMIWorks_Standard/lib/VPD-133.a(hmi_uart.o)
                              c:/ICPDAS/HMIWorks_Standard/lib/VPD-133.a(hmi_Init.o) (hmi_uart_Init)
c:/ICPDAS/HMIWorks_Standard/lib/VPD-133.a(dcon_io.o)
                              c:/ICPDAS/HMIWorks_Standard/lib/VPD-133.a(hmi_Init.o) (hmi_dcon_io_Init)
c:/ICPDAS/HMIWorks_Standard/lib/VPD-133.a(vpanel.o)
                              main.o (hmi_ShowPanelLed)
c:/ICPDAS/HMIWorks_Standard/lib/VPD-133.a(beep.o)
                              main.o (hmi_Beep)
c:/ICPDAS/HMIWorks_Standard/lib/VPD-133.a(mbrtu.o)
                              c:/ICPDAS/HMIWorks_Standard/lib/VPD-133.a(hmi_Init.o) (hmi_mbrtu_init)
c:/ICPDAS/HMIWorks_Standard/lib/VPD-133.a(mbtcp.o)
                              c:/ICPDAS/HMIWorks_Standard/lib/VPD-133.a(hmi_Init.o) (mbtcp_init)
c:/ICPDAS/HMIWorks_Standard/lib/libdriver.a(flash.o)
                              c:/ICPDAS/HMIWorks_Standard/lib/VPD-133.a(hmi_Init.o) (FlashUserGet)
c:/ICPDAS/HMIWorks_Standard/lib/libdriver.a(interrupt.o)
                              c:/ICPDAS/HMIWorks_Standard/lib/libdriver.a(flash.o) (IntRegister)
c:/ICPDAS/HMIWorks_Standard/lib/libdriver.a(sysctl.o)
                              c:/ICPDAS/HMIWorks_Standard/lib/commonlo.a(hmi_util.o) (SysCtlPeripheralEnable)
c:/ICPDAS/HMIWorks_Standard/lib/libdriver.a(watchdog.o)
                              c:/ICPDAS/HMIWorks_Standard/lib/commonlo.a(hmi_util.o) (WatchdogEnable)
c:/ICPDAS/HMIWorks_Standard/lib/libdriver.a(cpu.o)
                              c:/ICPDAS/HMIWorks_Standard/lib/libdriver.a(interrupt.o) (CPUcpsid)
c:/icpdas/hmiworks_standard/gcc/bin/../lib/gcc/arm-none-eabi/4.8.3/../../../../arm-none-eabi/lib/armv7-m/libc.a(lib_a-atoi.o)
                              _PavetNum.o (atoi)
c:/icpdas/hmiworks_standard/gcc/bin/../lib/gcc/arm-none-eabi/4.8.3/../../../../arm-none-eabi/lib/armv7-m/libc.a(lib_a-ctype_.o)
                              c:/ICPDAS/HMIWorks_Standard/lib/commonlo.a(usscanf.o) (__ctype_ptr__)
c:/icpdas/hmiworks_standard/gcc/bin/../lib/gcc/arm-none-eabi/4.8.3/../../../../arm-none-eabi/lib/armv7-m/libc.a(lib_a-malloc.o)
                              _PavetNum.o (malloc)
c:/icpdas/hmiworks_standard/gcc/bin/../lib/gcc/arm-none-eabi/4.8.3/../../../../arm-none-eabi/lib/armv7-m/libc.a(lib_a-mallocr.o)
                              c:/icpdas/hmiworks_standard/gcc/bin/../lib/gcc/arm-none-eabi/4.8.3/../../../../arm-none-eabi/lib/armv7-m/libc.a(lib_a-malloc.o) (_malloc_r)
c:/icpdas/hmiworks_standard/gcc/bin/../lib/gcc/arm-none-eabi/4.8.3/../../../../arm-none-eabi/lib/armv7-m/libc.a(lib_a-memcpy.o)
                              _frame0.o (memcpy)
c:/icpdas/hmiworks_standard/gcc/bin/../lib/gcc/arm-none-eabi/4.8.3/../../../../arm-none-eabi/lib/armv7-m/libc.a(lib_a-memset.o)
                              _PavetNum.o (memset)
c:/icpdas/hmiworks_standard/gcc/bin/../lib/gcc/arm-none-eabi/4.8.3/../../../../arm-none-eabi/lib/armv7-m/libc.a(lib_a-mlock.o)
                              c:/icpdas/hmiworks_standard/gcc/bin/../lib/gcc/arm-none-eabi/4.8.3/../../../../arm-none-eabi/lib/armv7-m/libc.a(lib_a-mallocr.o) (__malloc_lock)
c:/icpdas/hmiworks_standard/gcc/bin/../lib/gcc/arm-none-eabi/4.8.3/../../../../arm-none-eabi/lib/armv7-m/libc.a(lib_a-sprintf.o)
                              _PavetNum.o (sprintf)
c:/icpdas/hmiworks_standard/gcc/bin/../lib/gcc/arm-none-eabi/4.8.3/../../../../arm-none-eabi/lib/armv7-m/libc.a(lib_a-strcat.o)
                              _PavetNum.o (strcat)
c:/icpdas/hmiworks_standard/gcc/bin/../lib/gcc/arm-none-eabi/4.8.3/../../../../arm-none-eabi/lib/armv7-m/libc.a(lib_a-strcmp.o)
                              _frame0.o (strcmp)
c:/icpdas/hmiworks_standard/gcc/bin/../lib/gcc/arm-none-eabi/4.8.3/../../../../arm-none-eabi/lib/armv7-m/libc.a(lib_a-strcpy.o)
                              _PavetNum.o (strcpy)
c:/icpdas/hmiworks_standard/gcc/bin/../lib/gcc/arm-none-eabi/4.8.3/../../../../arm-none-eabi/lib/armv7-m/libc.a(lib_a-strlen.o)
                              _frame0.o (strlen)
c:/icpdas/hmiworks_standard/gcc/bin/../lib/gcc/arm-none-eabi/4.8.3/../../../../arm-none-eabi/lib/armv7-m/libc.a(lib_a-strncpy.o)
                              _Clavier.o (strncpy)
c:/icpdas/hmiworks_standard/gcc/bin/../lib/gcc/arm-none-eabi/4.8.3/../../../../arm-none-eabi/lib/armv7-m/libc.a(lib_a-strtod.o)
                              _PavetNum.o (strtof)
c:/icpdas/hmiworks_standard/gcc/bin/../lib/gcc/arm-none-eabi/4.8.3/../../../../arm-none-eabi/lib/armv7-m/libc.a(lib_a-strtol.o)
                              c:/icpdas/hmiworks_standard/gcc/bin/../lib/gcc/arm-none-eabi/4.8.3/../../../../arm-none-eabi/lib/armv7-m/libc.a(lib_a-atoi.o) (_strtol_r)
c:/icpdas/hmiworks_standard/gcc/bin/../lib/gcc/arm-none-eabi/4.8.3/../../../../arm-none-eabi/lib/armv7-m/libc.a(lib_a-svfprintf.o)
                              c:/icpdas/hmiworks_standard/gcc/bin/../lib/gcc/arm-none-eabi/4.8.3/../../../../arm-none-eabi/lib/armv7-m/libc.a(lib_a-sprintf.o) (_svfprintf_r)
c:/icpdas/hmiworks_standard/gcc/bin/../lib/gcc/arm-none-eabi/4.8.3/../../../../arm-none-eabi/lib/armv7-m/libc.a(tpd_syscalls.o)
                              c:/icpdas/hmiworks_standard/gcc/bin/../lib/gcc/arm-none-eabi/4.8.3/../../../../arm-none-eabi/lib/armv7-m/libc.a(lib_a-mallocr.o) (_sbrk_r)
c:/icpdas/hmiworks_standard/gcc/bin/../lib/gcc/arm-none-eabi/4.8.3/../../../../arm-none-eabi/lib/armv7-m/libc.a(lib_a-dtoa.o)
                              c:/icpdas/hmiworks_standard/gcc/bin/../lib/gcc/arm-none-eabi/4.8.3/../../../../arm-none-eabi/lib/armv7-m/libc.a(lib_a-svfprintf.o) (_dtoa_r)
c:/icpdas/hmiworks_standard/gcc/bin/../lib/gcc/arm-none-eabi/4.8.3/../../../../arm-none-eabi/lib/armv7-m/libc.a(lib_a-freer.o)
                              c:/icpdas/hmiworks_standard/gcc/bin/../lib/gcc/arm-none-eabi/4.8.3/../../../../arm-none-eabi/lib/armv7-m/libc.a(lib_a-malloc.o) (_free_r)
c:/icpdas/hmiworks_standard/gcc/bin/../lib/gcc/arm-none-eabi/4.8.3/../../../../arm-none-eabi/lib/armv7-m/libc.a(lib_a-gdtoa-gethex.o)
                              c:/icpdas/hmiworks_standard/gcc/bin/../lib/gcc/arm-none-eabi/4.8.3/../../../../arm-none-eabi/lib/armv7-m/libc.a(lib_a-strtod.o) (__gethex)
c:/icpdas/hmiworks_standard/gcc/bin/../lib/gcc/arm-none-eabi/4.8.3/../../../../arm-none-eabi/lib/armv7-m/libc.a(lib_a-gdtoa-hexnan.o)
                              c:/icpdas/hmiworks_standard/gcc/bin/../lib/gcc/arm-none-eabi/4.8.3/../../../../arm-none-eabi/lib/armv7-m/libc.a(lib_a-strtod.o) (__hexnan)
c:/icpdas/hmiworks_standard/gcc/bin/../lib/gcc/arm-none-eabi/4.8.3/../../../../arm-none-eabi/lib/armv7-m/libc.a(lib_a-impure.o)
                              c:/icpdas/hmiworks_standard/gcc/bin/../lib/gcc/arm-none-eabi/4.8.3/../../../../arm-none-eabi/lib/armv7-m/libc.a(lib_a-malloc.o) (_impure_ptr)
c:/icpdas/hmiworks_standard/gcc/bin/../lib/gcc/arm-none-eabi/4.8.3/../../../../arm-none-eabi/lib/armv7-m/libc.a(lib_a-locale.o)
                              c:/icpdas/hmiworks_standard/gcc/bin/../lib/gcc/arm-none-eabi/4.8.3/../../../../arm-none-eabi/lib/armv7-m/libc.a(lib_a-strtod.o) (_localeconv_r)
c:/icpdas/hmiworks_standard/gcc/bin/../lib/gcc/arm-none-eabi/4.8.3/../../../../arm-none-eabi/lib/armv7-m/libc.a(lib_a-memchr-stub.o)
                              c:/icpdas/hmiworks_standard/gcc/bin/../lib/gcc/arm-none-eabi/4.8.3/../../../../arm-none-eabi/lib/armv7-m/libc.a(lib_a-svfprintf.o) (memchr)
c:/icpdas/hmiworks_standard/gcc/bin/../lib/gcc/arm-none-eabi/4.8.3/../../../../arm-none-eabi/lib/armv7-m/libc.a(lib_a-mprec.o)
                              c:/icpdas/hmiworks_standard/gcc/bin/../lib/gcc/arm-none-eabi/4.8.3/../../../../arm-none-eabi/lib/armv7-m/libc.a(lib_a-strtod.o) (_Balloc)
c:/icpdas/hmiworks_standard/gcc/bin/../lib/gcc/arm-none-eabi/4.8.3/../../../../arm-none-eabi/lib/armv7-m/libc.a(lib_a-s_fpclassify.o)
                              c:/icpdas/hmiworks_standard/gcc/bin/../lib/gcc/arm-none-eabi/4.8.3/../../../../arm-none-eabi/lib/armv7-m/libc.a(lib_a-strtod.o) (__fpclassifyd)
c:/icpdas/hmiworks_standard/gcc/bin/../lib/gcc/arm-none-eabi/4.8.3/../../../../arm-none-eabi/lib/armv7-m/libc.a(lib_a-sf_nan.o)
                              c:/icpdas/hmiworks_standard/gcc/bin/../lib/gcc/arm-none-eabi/4.8.3/../../../../arm-none-eabi/lib/armv7-m/libc.a(lib_a-strtod.o) (nanf)
c:/icpdas/hmiworks_standard/gcc/bin/../lib/gcc/arm-none-eabi/4.8.3/../../../../arm-none-eabi/lib/armv7-m/libc.a(lib_a-strncmp.o)
                              c:/icpdas/hmiworks_standard/gcc/bin/../lib/gcc/arm-none-eabi/4.8.3/../../../../arm-none-eabi/lib/armv7-m/libc.a(lib_a-strtod.o) (strncmp)
c:/icpdas/hmiworks_standard/gcc/bin/../lib/gcc/arm-none-eabi/4.8.3/../../../../arm-none-eabi/lib/armv7-m/libc.a(lib_a-svfiprintf.o)
                              c:/icpdas/hmiworks_standard/gcc/bin/../lib/gcc/arm-none-eabi/4.8.3/../../../../arm-none-eabi/lib/armv7-m/libc.a(lib_a-svfprintf.o) (__ssprint_r)
c:/icpdas/hmiworks_standard/gcc/bin/../lib/gcc/arm-none-eabi/4.8.3/../../../../arm-none-eabi/lib/armv7-m/libc.a(lib_a-callocr.o)
                              c:/icpdas/hmiworks_standard/gcc/bin/../lib/gcc/arm-none-eabi/4.8.3/../../../../arm-none-eabi/lib/armv7-m/libc.a(lib_a-mprec.o) (_calloc_r)
c:/icpdas/hmiworks_standard/gcc/bin/../lib/gcc/arm-none-eabi/4.8.3/../../../../arm-none-eabi/lib/armv7-m/libc.a(lib_a-memmove.o)
                              c:/icpdas/hmiworks_standard/gcc/bin/../lib/gcc/arm-none-eabi/4.8.3/../../../../arm-none-eabi/lib/armv7-m/libc.a(lib_a-svfiprintf.o) (memmove)
c:/icpdas/hmiworks_standard/gcc/bin/../lib/gcc/arm-none-eabi/4.8.3/../../../../arm-none-eabi/lib/armv7-m/libc.a(lib_a-reallocr.o)
                              c:/icpdas/hmiworks_standard/gcc/bin/../lib/gcc/arm-none-eabi/4.8.3/../../../../arm-none-eabi/lib/armv7-m/libc.a(lib_a-svfiprintf.o) (_realloc_r)
c:/icpdas/hmiworks_standard/gcc/bin/../lib/gcc/arm-none-eabi/4.8.3/armv7-m/libgcc.a(_arm_addsubdf3.o)
                              c:/ICPDAS/HMIWorks_Standard/lib/commonlo.a(hmi.o) (__aeabi_dsub)
c:/icpdas/hmiworks_standard/gcc/bin/../lib/gcc/arm-none-eabi/4.8.3/armv7-m/libgcc.a(_arm_muldivdf3.o)
                              c:/ICPDAS/HMIWorks_Standard/lib/commonlo.a(hmi.o) (__aeabi_dmul)
c:/icpdas/hmiworks_standard/gcc/bin/../lib/gcc/arm-none-eabi/4.8.3/armv7-m/libgcc.a(_arm_cmpdf2.o)
                              c:/icpdas/hmiworks_standard/gcc/bin/../lib/gcc/arm-none-eabi/4.8.3/../../../../arm-none-eabi/lib/armv7-m/libc.a(lib_a-strtod.o) (__aeabi_dcmpeq)
c:/icpdas/hmiworks_standard/gcc/bin/../lib/gcc/arm-none-eabi/4.8.3/armv7-m/libgcc.a(_arm_fixdfsi.o)
                              c:/ICPDAS/HMIWorks_Standard/lib/commonlo.a(hmi.o) (__aeabi_d2iz)
c:/icpdas/hmiworks_standard/gcc/bin/../lib/gcc/arm-none-eabi/4.8.3/armv7-m/libgcc.a(_arm_fixunsdfsi.o)
                              c:/icpdas/hmiworks_standard/gcc/bin/../lib/gcc/arm-none-eabi/4.8.3/../../../../arm-none-eabi/lib/armv7-m/libc.a(lib_a-strtod.o) (__aeabi_d2uiz)
c:/icpdas/hmiworks_standard/gcc/bin/../lib/gcc/arm-none-eabi/4.8.3/armv7-m/libgcc.a(_arm_truncdfsf2.o)
                              c:/ICPDAS/HMIWorks_Standard/lib/commonlo.a(usscanf.o) (__aeabi_d2f)
c:/icpdas/hmiworks_standard/gcc/bin/../lib/gcc/arm-none-eabi/4.8.3/armv7-m/libgcc.a(_arm_addsubsf3.o)
                              c:/ICPDAS/HMIWorks_Standard/lib/commonlo.a(hmi_util.o) (__aeabi_fsub)
c:/icpdas/hmiworks_standard/gcc/bin/../lib/gcc/arm-none-eabi/4.8.3/armv7-m/libgcc.a(_arm_muldivsf3.o)
                              c:/ICPDAS/HMIWorks_Standard/lib/commonlo.a(hmi_util.o) (__aeabi_fmul)
c:/icpdas/hmiworks_standard/gcc/bin/../lib/gcc/arm-none-eabi/4.8.3/armv7-m/libgcc.a(_arm_cmpsf2.o)
                              _Seuillage.o (__aeabi_fcmpeq)
c:/icpdas/hmiworks_standard/gcc/bin/../lib/gcc/arm-none-eabi/4.8.3/armv7-m/libgcc.a(_arm_fixsfsi.o)
                              _ConfigModule.o (__aeabi_f2iz)
c:/icpdas/hmiworks_standard/gcc/bin/../lib/gcc/arm-none-eabi/4.8.3/armv7-m/libgcc.a(_aeabi_uldivmod.o)
                              c:/icpdas/hmiworks_standard/gcc/bin/../lib/gcc/arm-none-eabi/4.8.3/../../../../arm-none-eabi/lib/armv7-m/libc.a(lib_a-svfprintf.o) (__aeabi_uldivmod)
c:/icpdas/hmiworks_standard/gcc/bin/../lib/gcc/arm-none-eabi/4.8.3/armv7-m/libgcc.a(bpabi.o)
                              c:/icpdas/hmiworks_standard/gcc/bin/../lib/gcc/arm-none-eabi/4.8.3/armv7-m/libgcc.a(_aeabi_uldivmod.o) (__gnu_uldivmod_helper)
c:/icpdas/hmiworks_standard/gcc/bin/../lib/gcc/arm-none-eabi/4.8.3/armv7-m/libgcc.a(_dvmd_tls.o)
                              c:/icpdas/hmiworks_standard/gcc/bin/../lib/gcc/arm-none-eabi/4.8.3/armv7-m/libgcc.a(_aeabi_uldivmod.o) (__aeabi_ldiv0)
c:/icpdas/hmiworks_standard/gcc/bin/../lib/gcc/arm-none-eabi/4.8.3/armv7-m/libgcc.a(_divdi3.o)
                              c:/icpdas/hmiworks_standard/gcc/bin/../lib/gcc/arm-none-eabi/4.8.3/armv7-m/libgcc.a(bpabi.o) (__divdi3)
c:/icpdas/hmiworks_standard/gcc/bin/../lib/gcc/arm-none-eabi/4.8.3/armv7-m/libgcc.a(_udivdi3.o)
                              c:/icpdas/hmiworks_standard/gcc/bin/../lib/gcc/arm-none-eabi/4.8.3/armv7-m/libgcc.a(bpabi.o) (__udivdi3)

Allocating common symbols
Common symbol       size              file

mtm_WriteDO         0x4               c:/ICPDAS/HMIWorks_Standard/lib/VPD-133.a(mbtcp.o)
uart_BinWrite       0x4               c:/ICPDAS/HMIWorks_Standard/lib/VPD-133.a(hmi_uart.o)
uart_Open           0x4               c:/ICPDAS/HMIWorks_Standard/lib/VPD-133.a(hmi_uart.o)
lwIPLocalIPAddrGet  0x4               c:/ICPDAS/HMIWorks_Standard/lib/VPD-133.a(hmi_tcp.o)
dcon_ClearDIOLatch  0x4               c:/ICPDAS/HMIWorks_Standard/lib/VPD-133.a(dcon_io.o)
hmi_TCPAcceptedBy   0x4               c:/ICPDAS/HMIWorks_Standard/lib/VPD-133.a(hmi_tcp.o)
dcon_ReadAIAllHex   0x4               c:/ICPDAS/HMIWorks_Standard/lib/VPD-133.a(dcon_io.o)
uart_Send           0x4               c:/ICPDAS/HMIWorks_Standard/lib/VPD-133.a(hmi_uart.o)
dcon_ClearCNT       0x4               c:/ICPDAS/HMIWorks_Standard/lib/VPD-133.a(dcon_io.o)
hmi_UserFlashRead   0x4               c:/ICPDAS/HMIWorks_Standard/lib/VPD-133.a(hmi_Init.o)
hmi_UserFlashWrite  0x4               c:/ICPDAS/HMIWorks_Standard/lib/VPD-133.a(hmi_Init.o)
dcon_ClearDILatch   0x4               c:/ICPDAS/HMIWorks_Standard/lib/VPD-133.a(dcon_io.o)
dcon_ReadDIOLatch   0x4               c:/ICPDAS/HMIWorks_Standard/lib/VPD-133.a(dcon_io.o)
mrs_RegisterSlave   0x4               c:/ICPDAS/HMIWorks_Standard/lib/VPD-133.a(mbrtu.o)
uart_BinRead        0x4               c:/ICPDAS/HMIWorks_Standard/lib/VPD-133.a(hmi_uart.o)
module              0x4               _ConfigModule.o
dcon_ReadDILatch    0x4               c:/ICPDAS/HMIWorks_Standard/lib/VPD-133.a(dcon_io.o)
uart_Read           0x4               c:/ICPDAS/HMIWorks_Standard/lib/VPD-133.a(hmi_uart.o)
hmi_TCPAbandon      0x4               c:/ICPDAS/HMIWorks_Standard/lib/VPD-133.a(hmi_tcp.o)
hmi_TCPReadEx       0x4               c:/ICPDAS/HMIWorks_Standard/lib/VPD-133.a(hmi_tcp.o)
dcon_ReadCNT        0x4               c:/ICPDAS/HMIWorks_Standard/lib/VPD-133.a(dcon_io.o)
uart_GetRxDataCount
                    0x4               c:/ICPDAS/HMIWorks_Standard/lib/VPD-133.a(hmi_uart.o)
uart_BinSendCmd     0x4               c:/ICPDAS/HMIWorks_Standard/lib/VPD-133.a(hmi_uart.o)
LocatorMACAddrSet   0x4               c:/ICPDAS/HMIWorks_Standard/lib/VPD-133.a(hmi_tcp.o)
dcon_GetLastError   0x4               c:/ICPDAS/HMIWorks_Standard/lib/VPD-133.a(dcon_io.o)
RegisterIOScan      0x4               c:/ICPDAS/HMIWorks_Standard/lib/VPD-133.a(hmi_Init.o)
dcon_WriteDOBit     0x4               c:/ICPDAS/HMIWorks_Standard/lib/VPD-133.a(dcon_io.o)
hmi_TCPForceError   0x4               c:/ICPDAS/HMIWorks_Standard/lib/VPD-133.a(hmi_tcp.o)
hmi_LCDIdleSetCallback
                    0x4               c:/ICPDAS/HMIWorks_Standard/lib/VPD-133.a(hmi_Init.o)
mts_GetAIOBuf       0x4               c:/ICPDAS/HMIWorks_Standard/lib/VPD-133.a(mbtcp.o)
dcon_ClearDICNT     0x4               c:/ICPDAS/HMIWorks_Standard/lib/VPD-133.a(dcon_io.o)
s1                  0x4               _Seuillage.o
hmi_TCPTimeoutBeep  0x4               c:/ICPDAS/HMIWorks_Standard/lib/VPD-133.a(hmi_tcp.o)
hmi_UserFlashReadEx
                    0x4               c:/ICPDAS/HMIWorks_Standard/lib/VPD-133.a(hmi_Init.o)
mtm_Unregister      0x4               c:/ICPDAS/HMIWorks_Standard/lib/VPD-133.a(mbtcp.o)
uart_SendCmd        0x4               c:/ICPDAS/HMIWorks_Standard/lib/VPD-133.a(hmi_uart.o)
mrm_SetSilentInterval
                    0x4               c:/ICPDAS/HMIWorks_Standard/lib/VPD-133.a(mbrtu.o)
mtm_WriteAO         0x4               c:/ICPDAS/HMIWorks_Standard/lib/VPD-133.a(mbtcp.o)
uart_BinRecv        0x4               c:/ICPDAS/HMIWorks_Standard/lib/VPD-133.a(hmi_uart.o)
mrm_ReadAIO         0x4               c:/ICPDAS/HMIWorks_Standard/lib/VPD-133.a(mbrtu.o)
uart_EnableCheckSum
                    0x4               c:/ICPDAS/HMIWorks_Standard/lib/VPD-133.a(hmi_uart.o)
dcon_ReadAIAll      0x4               c:/ICPDAS/HMIWorks_Standard/lib/VPD-133.a(dcon_io.o)
dcon_ReadCNTOverflow
                    0x4               c:/ICPDAS/HMIWorks_Standard/lib/VPD-133.a(dcon_io.o)
hmi_TCPWrite        0x4               c:/ICPDAS/HMIWorks_Standard/lib/VPD-133.a(hmi_tcp.o)
LocatorAppTitleSet  0x4               c:/ICPDAS/HMIWorks_Standard/lib/VPD-133.a(hmi_tcp.o)
lwIPInit            0x4               c:/ICPDAS/HMIWorks_Standard/lib/VPD-133.a(hmi_tcp.o)
hmi_TCPState        0x4               c:/ICPDAS/HMIWorks_Standard/lib/VPD-133.a(hmi_tcp.o)
mts_ProcessCmd      0x4               c:/ICPDAS/HMIWorks_Standard/lib/VPD-133.a(mbtcp.o)
dcon_ReadAO         0x4               c:/ICPDAS/HMIWorks_Standard/lib/VPD-133.a(dcon_io.o)
unite               0x4               _ConfigCapteur.o
mrm_WriteDO         0x4               c:/ICPDAS/HMIWorks_Standard/lib/VPD-133.a(mbrtu.o)
uart_Recv           0x4               c:/ICPDAS/HMIWorks_Standard/lib/VPD-133.a(hmi_uart.o)
mrm_ReadDIO         0x4               c:/ICPDAS/HMIWorks_Standard/lib/VPD-133.a(mbrtu.o)
mts_RegisterSlave   0x4               c:/ICPDAS/HMIWorks_Standard/lib/VPD-133.a(mbtcp.o)
tick                0x4               _Clavier.o
LocatorInit         0x4               c:/ICPDAS/HMIWorks_Standard/lib/VPD-133.a(hmi_tcp.o)
addr                0x4               _ConfigModule.o
hmi_TCPInit         0x4               c:/ICPDAS/HMIWorks_Standard/lib/VPD-133.a(hmi_tcp.o)
hmi_TCPGetRemotePort
                    0x4               c:/ICPDAS/HMIWorks_Standard/lib/VPD-133.a(hmi_tcp.o)
mtm_RegisterTCP     0x4               c:/ICPDAS/HMIWorks_Standard/lib/VPD-133.a(mbtcp.o)
hmi_TCPNew          0x4               c:/ICPDAS/HMIWorks_Standard/lib/VPD-133.a(hmi_tcp.o)
hmi_TCPGetLocalPort
                    0x4               c:/ICPDAS/HMIWorks_Standard/lib/VPD-133.a(hmi_tcp.o)
dcon_ReadAI         0x4               c:/ICPDAS/HMIWorks_Standard/lib/VPD-133.a(dcon_io.o)
hmi_IPToStr         0x4               c:/ICPDAS/HMIWorks_Standard/lib/VPD-133.a(hmi_tcp.o)
dcon_ClearLastError
                    0x4               c:/ICPDAS/HMIWorks_Standard/lib/VPD-133.a(dcon_io.o)
__var_table         0xc               _dict.o
hmi_TCPSendCmdEx    0x4               c:/ICPDAS/HMIWorks_Standard/lib/VPD-133.a(hmi_tcp.o)
dcon_ReadDIO        0x4               c:/ICPDAS/HMIWorks_Standard/lib/VPD-133.a(dcon_io.o)
mrs_ProcessCmd      0x4               c:/ICPDAS/HMIWorks_Standard/lib/VPD-133.a(mbrtu.o)
dcon_ReadDO         0x4               c:/ICPDAS/HMIWorks_Standard/lib/VPD-133.a(dcon_io.o)
g_NextRung          0x4               c:/ICPDAS/HMIWorks_Standard/lib/commonlo.a(ladder2c.o)
hmi_TCPClose        0x4               c:/ICPDAS/HMIWorks_Standard/lib/VPD-133.a(hmi_tcp.o)
uart_Close          0x4               c:/ICPDAS/HMIWorks_Standard/lib/VPD-133.a(hmi_uart.o)
uart_Write          0x4               c:/ICPDAS/HMIWorks_Standard/lib/VPD-133.a(hmi_uart.o)
uart_SetTerminator  0x4               c:/ICPDAS/HMIWorks_Standard/lib/VPD-133.a(hmi_uart.o)
hmi_UserFlashWriteEx
                    0x4               c:/ICPDAS/HMIWorks_Standard/lib/VPD-133.a(hmi_Init.o)
dcon_ReadDI         0x4               c:/ICPDAS/HMIWorks_Standard/lib/VPD-133.a(dcon_io.o)
hmi_TCPOutput       0x4               c:/ICPDAS/HMIWorks_Standard/lib/VPD-133.a(hmi_tcp.o)
uart_SetTimeout     0x4               c:/ICPDAS/HMIWorks_Standard/lib/VPD-133.a(hmi_uart.o)
hmi_TCPListen       0x4               c:/ICPDAS/HMIWorks_Standard/lib/VPD-133.a(hmi_tcp.o)
mrs_GetAIOBuf       0x4               c:/ICPDAS/HMIWorks_Standard/lib/VPD-133.a(mbrtu.o)
mrs_GetDIOBuf       0x4               c:/ICPDAS/HMIWorks_Standard/lib/VPD-133.a(mbrtu.o)
uart_BinSend        0x4               c:/ICPDAS/HMIWorks_Standard/lib/VPD-133.a(hmi_uart.o)
dcon_SetLastError   0x4               c:/ICPDAS/HMIWorks_Standard/lib/VPD-133.a(dcon_io.o)
mtm_Register        0x4               c:/ICPDAS/HMIWorks_Standard/lib/VPD-133.a(mbtcp.o)
g_sDisplayDriverROM
                    0x28              c:/ICPDAS/HMIWorks_Standard/lib/commonlo.a(widget_init.o)
hmi_UserFlashErase  0x4               c:/ICPDAS/HMIWorks_Standard/lib/VPD-133.a(hmi_Init.o)
mts_GetDIOBuf       0x4               c:/ICPDAS/HMIWorks_Standard/lib/VPD-133.a(mbtcp.o)
dcon_WriteAO        0x4               c:/ICPDAS/HMIWorks_Standard/lib/VPD-133.a(dcon_io.o)
hmi_StrToIP         0x4               c:/ICPDAS/HMIWorks_Standard/lib/VPD-133.a(hmi_tcp.o)
mtm_ReadAIO         0x4               c:/ICPDAS/HMIWorks_Standard/lib/VPD-133.a(mbtcp.o)
dcon_ReadAIHex      0x4               c:/ICPDAS/HMIWorks_Standard/lib/VPD-133.a(dcon_io.o)
mtm_ReadDIO         0x4               c:/ICPDAS/HMIWorks_Standard/lib/VPD-133.a(mbtcp.o)
mrm_WriteAO         0x4               c:/ICPDAS/HMIWorks_Standard/lib/VPD-133.a(mbrtu.o)
dcon_ReadDICNT      0x4               c:/ICPDAS/HMIWorks_Standard/lib/VPD-133.a(dcon_io.o)
dcon_WriteDO        0x4               c:/ICPDAS/HMIWorks_Standard/lib/VPD-133.a(dcon_io.o)
hmi_TCPGetRemoteIP  0x4               c:/ICPDAS/HMIWorks_Standard/lib/VPD-133.a(hmi_tcp.o)
hmi_DrawImage       0x4               c:/ICPDAS/HMIWorks_Standard/lib/commonlo.a(hmi.o)
hmi_TCPOpen         0x4               c:/ICPDAS/HMIWorks_Standard/lib/VPD-133.a(hmi_tcp.o)

Discarded input sections

 .text          0x00000000        0x0 main.o
 .data          0x00000000        0x0 main.o
 .bss           0x00000000        0x0 main.o
 .text          0x00000000        0x0 _frame0.o
 .data          0x00000000        0x0 _frame0.o
 .bss           0x00000000        0x0 _frame0.o
 .text.hmi_CheckModbus
                0x00000000        0x2 _frame0.o
 .text.hmi_GetActiveFrame
                0x00000000       0x34 _frame0.o
 .text.hmi_MtmReconnectState
                0x00000000       0x5c _frame0.o
 .rodata.g_FrameCount
                0x00000000        0x4 _frame0.o
 .text          0x00000000        0x0 _demarrage.o
 .data          0x00000000        0x0 _demarrage.o
 .bss           0x00000000        0x0 _demarrage.o
 .text.demarrage2OnPaint
                0x00000000        0x2 _demarrage.o
 .text.Timer137OnExecute
                0x00000000        0xc _demarrage.o
 .text          0x00000000        0x0 _PavetNum.o
 .data          0x00000000        0x0 _PavetNum.o
 .bss           0x00000000        0x0 _PavetNum.o
 .text.Timer132OnExecute
                0x00000000        0x2 _PavetNum.o
 .text.PavetNum14OnShow
                0x00000000        0x2 _PavetNum.o
 .text.resetColorButton
                0x00000000       0xa0 _PavetNum.o
 .text.renderPavetNum14Vector
                0x00000000        0x2 _PavetNum.o
 .text          0x00000000        0x0 _ConfigModule.o
 .data          0x00000000        0x0 _ConfigModule.o
 .bss           0x00000000        0x0 _ConfigModule.o
 .text.Timer140OnExecute
                0x00000000        0x2 _ConfigModule.o
 .text.ConfigModule29OnCreate
                0x00000000        0x2 _ConfigModule.o
 .text.ConfigModule29OnPaint
                0x00000000        0x2 _ConfigModule.o
 .text.ConfigModule29OnDestroy
                0x00000000        0x2 _ConfigModule.o
 .text          0x00000000        0x0 _ConfigCapteur.o
 .data          0x00000000        0x0 _ConfigCapteur.o
 .bss           0x00000000        0x0 _ConfigCapteur.o
 .text.ConfigCapteur7OnCreate
                0x00000000        0x2 _ConfigCapteur.o
 .text.TextPushButton55OnClick
                0x00000000        0xc _ConfigCapteur.o
 .text.Etalonnage138OnClick
                0x00000000        0xc _ConfigCapteur.o
 COMMON         0x00000000        0x4 _ConfigCapteur.o
 .text          0x00000000        0x0 _Etalonnage.o
 .data          0x00000000        0x0 _Etalonnage.o
 .bss           0x00000000        0x0 _Etalonnage.o
 .text.TextPushButton136OnClick
                0x00000000        0xc _Etalonnage.o
 .text.TextPushButton108OnClick
                0x00000000        0xc _Etalonnage.o
 .data.adresseCoefEtal
                0x00000000        0x4 _Etalonnage.o
 .text          0x00000000        0x0 _Seuillage.o
 .data          0x00000000        0x0 _Seuillage.o
 .bss           0x00000000        0x0 _Seuillage.o
 .text.Timer52OnExecute
                0x00000000        0x2 _Seuillage.o
 .text.TextPushButton71OnClick
                0x00000000        0xc _Seuillage.o
 .text.Seuillage45OnCreate
                0x00000000        0x2 _Seuillage.o
 .text.Seuillage45OnDestroy
                0x00000000        0x2 _Seuillage.o
 .text.paramAvances94OnClick
                0x00000000        0xc _Seuillage.o
 COMMON         0x00000000        0x4 _Seuillage.o
 .text          0x00000000        0x0 _SeuilUn.o
 .data          0x00000000        0x0 _SeuilUn.o
 .bss           0x00000000        0x0 _SeuilUn.o
 .text.TextPushButton153OnClick
                0x00000000        0xc _SeuilUn.o
 .text.Valider111OnClick
                0x00000000        0xc _SeuilUn.o
 .text.SeuilUn95OnPaint
                0x00000000        0x2 _SeuilUn.o
 .text          0x00000000        0x0 _Affichage.o
 .data          0x00000000        0x0 _Affichage.o
 .bss           0x00000000        0x0 _Affichage.o
 .text.ConfigM113OnClick
                0x00000000        0xc _Affichage.o
 .text.ConfigC117OnClick
                0x00000000        0xc _Affichage.o
 .text.ConfigS116OnClick
                0x00000000        0xc _Affichage.o
 .text.ConfigE115OnClick
                0x00000000        0xc _Affichage.o
 .text.renderAffichage112Vector
                0x00000000        0x2 _Affichage.o
 .text          0x00000000        0x0 _Clavier.o
 .data          0x00000000        0x0 _Clavier.o
 .bss           0x00000000        0x0 _Clavier.o
 .text.Timer292OnExecute
                0x00000000        0x2 _Clavier.o
 .text.Clavier44OnShow
                0x00000000        0x2 _Clavier.o
 COMMON         0x00000000        0x4 _Clavier.o
 .text          0x00000000        0x0 _Alerte.o
 .data          0x00000000        0x0 _Alerte.o
 .bss           0x00000000        0x0 _Alerte.o
 .text.TextPushButton122OnClick
                0x00000000        0xc _Alerte.o
 .text.renderAlerte120Vector
                0x00000000        0x2 _Alerte.o
 .text          0x00000000        0x0 _dict.o
 .data          0x00000000        0x0 _dict.o
 .bss           0x00000000        0x0 _dict.o
 .text          0x00000000        0x0 ladder.o
 .data          0x00000000        0x0 ladder.o
 .bss           0x00000000        0x0 ladder.o
 .text          0x00000000        0x0 imagedata.o
 .data          0x00000000        0x0 imagedata.o
 .bss           0x00000000        0x0 imagedata.o
 .text          0x00000000        0x0 ladder_test_ldx.o
 .data          0x00000000        0x0 ladder_test_ldx.o
 .bss           0x00000000        0x0 ladder_test_ldx.o
 .text          0x00000000        0x0 c:/ICPDAS/HMIWorks_Standard/lib/VPD-133/startup_gcc.o
 .data          0x00000000        0x0 c:/ICPDAS/HMIWorks_Standard/lib/VPD-133/startup_gcc.o
 .bss           0x00000000        0x0 c:/ICPDAS/HMIWorks_Standard/lib/VPD-133/startup_gcc.o
 .text          0x00000000        0x0 c:/ICPDAS/HMIWorks_Standard/lib/commonlo.a(hmi.o)
 .data          0x00000000        0x0 c:/ICPDAS/HMIWorks_Standard/lib/commonlo.a(hmi.o)
 .bss           0x00000000        0x0 c:/ICPDAS/HMIWorks_Standard/lib/commonlo.a(hmi.o)
 .text.putpixel
                0x00000000       0x30 c:/ICPDAS/HMIWorks_Standard/lib/commonlo.a(hmi.o)
 .text.hmi_DrawPolyLine
                0x00000000       0x66 c:/ICPDAS/HMIWorks_Standard/lib/commonlo.a(hmi.o)
 .text.hmi_DrawLine
                0x00000000        0x4 c:/ICPDAS/HMIWorks_Standard/lib/commonlo.a(hmi.o)
 .text.hmi_DrawRect
                0x00000000       0x20 c:/ICPDAS/HMIWorks_Standard/lib/commonlo.a(hmi.o)
 .text.hmi_DrawCircle
                0x00000000        0x4 c:/ICPDAS/HMIWorks_Standard/lib/commonlo.a(hmi.o)
 .text.hmi_FillCircle
                0x00000000        0x4 c:/ICPDAS/HMIWorks_Standard/lib/commonlo.a(hmi.o)
 .text.hmi_SetBackground
                0x00000000       0x10 c:/ICPDAS/HMIWorks_Standard/lib/commonlo.a(hmi.o)
 .text.hmi_DrawEllipse
                0x00000000      0x22c c:/ICPDAS/HMIWorks_Standard/lib/commonlo.a(hmi.o)
 .text.hmi_FillEllipse
                0x00000000      0x1d4 c:/ICPDAS/HMIWorks_Standard/lib/commonlo.a(hmi.o)
 .text.CRC16    0x00000000       0x2c c:/ICPDAS/HMIWorks_Standard/lib/commonlo.a(hmi.o)
 .rodata.wCRCTable.6108
                0x00000000      0x200 c:/ICPDAS/HMIWorks_Standard/lib/commonlo.a(hmi.o)
 .text          0x00000000        0x0 c:/ICPDAS/HMIWorks_Standard/lib/commonlo.a(hmi_util.o)
 .data          0x00000000        0x0 c:/ICPDAS/HMIWorks_Standard/lib/commonlo.a(hmi_util.o)
 .bss           0x00000000        0x0 c:/ICPDAS/HMIWorks_Standard/lib/commonlo.a(hmi_util.o)
 .text.U32ToFloat
                0x00000000        0x2 c:/ICPDAS/HMIWorks_Standard/lib/commonlo.a(hmi_util.o)
 .text.FloatToU32
                0x00000000        0x2 c:/ICPDAS/HMIWorks_Standard/lib/commonlo.a(hmi_util.o)
 .text.LongToDecString
                0x00000000       0xac c:/ICPDAS/HMIWorks_Standard/lib/commonlo.a(hmi_util.o)
 .text.M7K_GetRangeLimit
                0x00000000      0x548 c:/ICPDAS/HMIWorks_Standard/lib/commonlo.a(hmi_util.o)
 .text.M7K_AIHexToFloat
                0x00000000      0x280 c:/ICPDAS/HMIWorks_Standard/lib/commonlo.a(hmi_util.o)
 .text.M7K_AIHexToLongK
                0x00000000       0x94 c:/ICPDAS/HMIWorks_Standard/lib/commonlo.a(hmi_util.o)
 .text.aoFloatToHex
                0x00000000       0x56 c:/ICPDAS/HMIWorks_Standard/lib/commonlo.a(hmi_util.o)
 .text.M7K_AOFloatToHex
                0x00000000       0xb0 c:/ICPDAS/HMIWorks_Standard/lib/commonlo.a(hmi_util.o)
 .text.M7K_AOLongKToHex
                0x00000000       0x20 c:/ICPDAS/HMIWorks_Standard/lib/commonlo.a(hmi_util.o)
 .text.aoHexToFloat
                0x00000000       0x40 c:/ICPDAS/HMIWorks_Standard/lib/commonlo.a(hmi_util.o)
 .text.M7K_AOHexToFloat
                0x00000000       0xd8 c:/ICPDAS/HMIWorks_Standard/lib/commonlo.a(hmi_util.o)
 .text.M7K_AOHexToLongK
                0x00000000       0x18 c:/ICPDAS/HMIWorks_Standard/lib/commonlo.a(hmi_util.o)
 .text.hmi_WdtClear
                0x00000000       0x1e c:/ICPDAS/HMIWorks_Standard/lib/commonlo.a(hmi_util.o)
 .text.hmi_WdtEnable
                0x00000000       0x70 c:/ICPDAS/HMIWorks_Standard/lib/commonlo.a(hmi_util.o)
 .text.hmi_Unpack
                0x00000000       0x3c c:/ICPDAS/HMIWorks_Standard/lib/commonlo.a(hmi_util.o)
 .text.hmi_Pack
                0x00000000       0x58 c:/ICPDAS/HMIWorks_Standard/lib/commonlo.a(hmi_util.o)
 .text          0x00000000        0x0 c:/ICPDAS/HMIWorks_Standard/lib/commonlo.a(ladder2c.o)
 .data          0x00000000        0x0 c:/ICPDAS/HMIWorks_Standard/lib/commonlo.a(ladder2c.o)
 .bss           0x00000000        0x0 c:/ICPDAS/HMIWorks_Standard/lib/commonlo.a(ladder2c.o)
 .text.rung_each
                0x00000000       0x24 c:/ICPDAS/HMIWorks_Standard/lib/commonlo.a(ladder2c.o)
 .text.setup_output_proc
                0x00000000        0xc c:/ICPDAS/HMIWorks_Standard/lib/commonlo.a(ladder2c.o)
 .data.output_proc
                0x00000000        0x4 c:/ICPDAS/HMIWorks_Standard/lib/commonlo.a(ladder2c.o)
 COMMON         0x00000000        0x4 c:/ICPDAS/HMIWorks_Standard/lib/commonlo.a(ladder2c.o)
 .text          0x00000000        0x0 c:/ICPDAS/HMIWorks_Standard/lib/commonlo.a(pvar.o)
 .data          0x00000000        0x0 c:/ICPDAS/HMIWorks_Standard/lib/commonlo.a(pvar.o)
 .bss           0x00000000        0x0 c:/ICPDAS/HMIWorks_Standard/lib/commonlo.a(pvar.o)
 .text.sample_display
                0x00000000        0x2 c:/ICPDAS/HMIWorks_Standard/lib/commonlo.a(pvar.o)
 .text.var_init
                0x00000000        0xc c:/ICPDAS/HMIWorks_Standard/lib/commonlo.a(pvar.o)
 .text.var_set_flag
                0x00000000       0x60 c:/ICPDAS/HMIWorks_Standard/lib/commonlo.a(pvar.o)
 .text.var_value
                0x00000000       0x18 c:/ICPDAS/HMIWorks_Standard/lib/commonlo.a(pvar.o)
 .text.var_get_write_data
                0x00000000       0x1e c:/ICPDAS/HMIWorks_Standard/lib/commonlo.a(pvar.o)
 .text.var_p_pulse
                0x00000000       0x26 c:/ICPDAS/HMIWorks_Standard/lib/commonlo.a(pvar.o)
 .text.var_n_pulse
                0x00000000       0x28 c:/ICPDAS/HMIWorks_Standard/lib/commonlo.a(pvar.o)
 .text.var_flag_is_write
                0x00000000        0xe c:/ICPDAS/HMIWorks_Standard/lib/commonlo.a(pvar.o)
 .text.var_get_write_byte
                0x00000000       0x2a c:/ICPDAS/HMIWorks_Standard/lib/commonlo.a(pvar.o)
 .text.var_get_write_U32
                0x00000000       0x2a c:/ICPDAS/HMIWorks_Standard/lib/commonlo.a(pvar.o)
 .text.var_update_dio_buf_byte
                0x00000000       0x32 c:/ICPDAS/HMIWorks_Standard/lib/commonlo.a(pvar.o)
 .text.var_update_aio_buf
                0x00000000       0x1e c:/ICPDAS/HMIWorks_Standard/lib/commonlo.a(pvar.o)
 .bss.__UNDEFINED__
                0x00000000       0x10 c:/ICPDAS/HMIWorks_Standard/lib/commonlo.a(pvar.o)
 .text          0x00000000        0x0 c:/ICPDAS/HMIWorks_Standard/lib/commonlo.a(timer.o)
 .data          0x00000000        0x0 c:/ICPDAS/HMIWorks_Standard/lib/commonlo.a(timer.o)
 .bss           0x00000000        0x0 c:/ICPDAS/HMIWorks_Standard/lib/commonlo.a(timer.o)
 .text.TimerEnabledGet
                0x00000000        0x8 c:/ICPDAS/HMIWorks_Standard/lib/commonlo.a(timer.o)
 .text.TimerIntervalGet
                0x00000000        0x4 c:/ICPDAS/HMIWorks_Standard/lib/commonlo.a(timer.o)
 .text          0x00000000        0x0 c:/ICPDAS/HMIWorks_Standard/lib/commonlo.a(usscanf.o)
 .data          0x00000000        0x0 c:/ICPDAS/HMIWorks_Standard/lib/commonlo.a(usscanf.o)
 .bss           0x00000000        0x0 c:/ICPDAS/HMIWorks_Standard/lib/commonlo.a(usscanf.o)
 .text.__getc   0x00000000       0x24 c:/ICPDAS/HMIWorks_Standard/lib/commonlo.a(usscanf.o)
 .text.__ungetc
                0x00000000        0x4 c:/ICPDAS/HMIWorks_Standard/lib/commonlo.a(usscanf.o)
 .text.__strtol
                0x00000000        0x4 c:/ICPDAS/HMIWorks_Standard/lib/commonlo.a(usscanf.o)
 .text.__strtod
                0x00000000      0x1c8 c:/ICPDAS/HMIWorks_Standard/lib/commonlo.a(usscanf.o)
 .text.usscanf  0x00000000      0x784 c:/ICPDAS/HMIWorks_Standard/lib/commonlo.a(usscanf.o)
 .bss.inp_buf   0x00000000      0x200 c:/ICPDAS/HMIWorks_Standard/lib/commonlo.a(usscanf.o)
 .rodata.CSWTCH.32
                0x00000000       0x21 c:/ICPDAS/HMIWorks_Standard/lib/commonlo.a(usscanf.o)
 .bss.Xtable    0x00000000      0x100 c:/ICPDAS/HMIWorks_Standard/lib/commonlo.a(usscanf.o)
 .comment       0x00000000       0x71 c:/ICPDAS/HMIWorks_Standard/lib/commonlo.a(usscanf.o)
 .ARM.attributes
                0x00000000       0x33 c:/ICPDAS/HMIWorks_Standard/lib/commonlo.a(usscanf.o)
 .text          0x00000000        0x0 c:/ICPDAS/HMIWorks_Standard/lib/commonlo.a(ustdlib.o)
 .data          0x00000000        0x0 c:/ICPDAS/HMIWorks_Standard/lib/commonlo.a(ustdlib.o)
 .bss           0x00000000        0x0 c:/ICPDAS/HMIWorks_Standard/lib/commonlo.a(ustdlib.o)
 .text.ucmptime
                0x00000000       0x4e c:/ICPDAS/HMIWorks_Standard/lib/commonlo.a(ustdlib.o)
 .text.usnprintf
                0x00000000       0x1a c:/ICPDAS/HMIWorks_Standard/lib/commonlo.a(ustdlib.o)
 .text.ulocaltime
                0x00000000       0xa4 c:/ICPDAS/HMIWorks_Standard/lib/commonlo.a(ustdlib.o)
 .text.umktime  0x00000000       0x52 c:/ICPDAS/HMIWorks_Standard/lib/commonlo.a(ustdlib.o)
 .text.ustrtoul
                0x00000000       0xb4 c:/ICPDAS/HMIWorks_Standard/lib/commonlo.a(ustdlib.o)
 .text.ustrtof  0x00000000      0x184 c:/ICPDAS/HMIWorks_Standard/lib/commonlo.a(ustdlib.o)
 .text.ustrlen  0x00000000        0xe c:/ICPDAS/HMIWorks_Standard/lib/commonlo.a(ustdlib.o)
 .text.ustrncasecmp
                0x00000000       0x48 c:/ICPDAS/HMIWorks_Standard/lib/commonlo.a(ustdlib.o)
 .text.ustrcasecmp
                0x00000000        0x8 c:/ICPDAS/HMIWorks_Standard/lib/commonlo.a(ustdlib.o)
 .text.ustrncmp
                0x00000000       0x2c c:/ICPDAS/HMIWorks_Standard/lib/commonlo.a(ustdlib.o)
 .text.ustrstr  0x00000000       0x2c c:/ICPDAS/HMIWorks_Standard/lib/commonlo.a(ustdlib.o)
 .text.ustrcmp  0x00000000        0x8 c:/ICPDAS/HMIWorks_Standard/lib/commonlo.a(ustdlib.o)
 .text.usrand   0x00000000        0xc c:/ICPDAS/HMIWorks_Standard/lib/commonlo.a(ustdlib.o)
 .text.urand    0x00000000       0x1c c:/ICPDAS/HMIWorks_Standard/lib/commonlo.a(ustdlib.o)
 .rodata.g_psDaysToMonth
                0x00000000       0x30 c:/ICPDAS/HMIWorks_Standard/lib/commonlo.a(ustdlib.o)
 .data.g_iRandomSeed
                0x00000000        0x4 c:/ICPDAS/HMIWorks_Standard/lib/commonlo.a(ustdlib.o)
 .rodata.g_pfExponents
                0x00000000       0x18 c:/ICPDAS/HMIWorks_Standard/lib/commonlo.a(ustdlib.o)
 .text          0x00000000        0x0 c:/ICPDAS/HMIWorks_Standard/lib/commonlo.a(widget_init.o)
 .data          0x00000000        0x0 c:/ICPDAS/HMIWorks_Standard/lib/commonlo.a(widget_init.o)
 .bss           0x00000000        0x0 c:/ICPDAS/HMIWorks_Standard/lib/commonlo.a(widget_init.o)
 .text          0x00000000        0x0 c:/ICPDAS/HMIWorks_Standard/lib/libgr.a(canvas.o)
 .data          0x00000000        0x0 c:/ICPDAS/HMIWorks_Standard/lib/libgr.a(canvas.o)
 .bss           0x00000000        0x0 c:/ICPDAS/HMIWorks_Standard/lib/libgr.a(canvas.o)
 .text.CanvasInit
                0x00000000       0x3c c:/ICPDAS/HMIWorks_Standard/lib/libgr.a(canvas.o)
 .text          0x00000000        0x0 c:/ICPDAS/HMIWorks_Standard/lib/libgr.a(checkbox.o)
 .data          0x00000000        0x0 c:/ICPDAS/HMIWorks_Standard/lib/libgr.a(checkbox.o)
 .bss           0x00000000        0x0 c:/ICPDAS/HMIWorks_Standard/lib/libgr.a(checkbox.o)
 .text.CheckBoxInit
                0x00000000       0x3c c:/ICPDAS/HMIWorks_Standard/lib/libgr.a(checkbox.o)
 .text          0x00000000        0x0 c:/ICPDAS/HMIWorks_Standard/lib/libgr.a(circle.o)
 .data          0x00000000        0x0 c:/ICPDAS/HMIWorks_Standard/lib/libgr.a(circle.o)
 .bss           0x00000000        0x0 c:/ICPDAS/HMIWorks_Standard/lib/libgr.a(circle.o)
 .text.CircleImageLineDrawH.isra.0
                0x00000000       0x8c c:/ICPDAS/HMIWorks_Standard/lib/libgr.a(circle.o)
 .text.GrCircleDraw
                0x00000000      0x1da c:/ICPDAS/HMIWorks_Standard/lib/libgr.a(circle.o)
 .text.GrCircleFill
                0x00000000      0x11e c:/ICPDAS/HMIWorks_Standard/lib/libgr.a(circle.o)
 .text.GrCircleImageDraw
                0x00000000      0x1a8 c:/ICPDAS/HMIWorks_Standard/lib/libgr.a(circle.o)
 .comment       0x00000000       0x71 c:/ICPDAS/HMIWorks_Standard/lib/libgr.a(circle.o)
 .ARM.attributes
                0x00000000       0x33 c:/ICPDAS/HMIWorks_Standard/lib/libgr.a(circle.o)
 .text          0x00000000        0x0 c:/ICPDAS/HMIWorks_Standard/lib/libgr.a(context.o)
 .data          0x00000000        0x0 c:/ICPDAS/HMIWorks_Standard/lib/libgr.a(context.o)
 .bss           0x00000000        0x0 c:/ICPDAS/HMIWorks_Standard/lib/libgr.a(context.o)
 .text          0x00000000        0x0 c:/ICPDAS/HMIWorks_Standard/lib/libgr.a(image.o)
 .data          0x00000000        0x0 c:/ICPDAS/HMIWorks_Standard/lib/libgr.a(image.o)
 .bss           0x00000000        0x0 c:/ICPDAS/HMIWorks_Standard/lib/libgr.a(image.o)
 .text.GrTransparentImageDraw
                0x00000000        0x4 c:/ICPDAS/HMIWorks_Standard/lib/libgr.a(image.o)
 .text          0x00000000        0x0 c:/ICPDAS/HMIWorks_Standard/lib/libgr.a(line.o)
 .data          0x00000000        0x0 c:/ICPDAS/HMIWorks_Standard/lib/libgr.a(line.o)
 .bss           0x00000000        0x0 c:/ICPDAS/HMIWorks_Standard/lib/libgr.a(line.o)
 .text          0x00000000        0x0 c:/ICPDAS/HMIWorks_Standard/lib/libgr.a(pushbutton.o)
 .data          0x00000000        0x0 c:/ICPDAS/HMIWorks_Standard/lib/libgr.a(pushbutton.o)
 .bss           0x00000000        0x0 c:/ICPDAS/HMIWorks_Standard/lib/libgr.a(pushbutton.o)
 .text.CircularButtonPaint
                0x00000000      0x19a c:/ICPDAS/HMIWorks_Standard/lib/libgr.a(pushbutton.o)
 .text.CircularButtonMsgProc
                0x00000000      0x118 c:/ICPDAS/HMIWorks_Standard/lib/libgr.a(pushbutton.o)
 .text.RectangularButtonInit
                0x00000000       0x3c c:/ICPDAS/HMIWorks_Standard/lib/libgr.a(pushbutton.o)
 .text.CircularButtonInit
                0x00000000       0x40 c:/ICPDAS/HMIWorks_Standard/lib/libgr.a(pushbutton.o)
 .text          0x00000000        0x0 c:/ICPDAS/HMIWorks_Standard/lib/libgr.a(rectangle.o)
 .data          0x00000000        0x0 c:/ICPDAS/HMIWorks_Standard/lib/libgr.a(rectangle.o)
 .bss           0x00000000        0x0 c:/ICPDAS/HMIWorks_Standard/lib/libgr.a(rectangle.o)
 .text.GrRectOverlapCheck
                0x00000000       0x3a c:/ICPDAS/HMIWorks_Standard/lib/libgr.a(rectangle.o)
 .text.GrRectIntersectGet
                0x00000000       0x70 c:/ICPDAS/HMIWorks_Standard/lib/libgr.a(rectangle.o)
 .text          0x00000000        0x0 c:/ICPDAS/HMIWorks_Standard/lib/libgr.a(string.o)
 .data          0x00000000        0x0 c:/ICPDAS/HMIWorks_Standard/lib/libgr.a(string.o)
 .bss           0x00000000        0x0 c:/ICPDAS/HMIWorks_Standard/lib/libgr.a(string.o)
 .text.GrStringTableSet
                0x00000000       0x3c c:/ICPDAS/HMIWorks_Standard/lib/libgr.a(string.o)
 .text.GrStringLanguageSet
                0x00000000       0x38 c:/ICPDAS/HMIWorks_Standard/lib/libgr.a(string.o)
 .text.GrStringGet
                0x00000000      0x248 c:/ICPDAS/HMIWorks_Standard/lib/libgr.a(string.o)
 .bss.g_usNumLanguages
                0x00000000        0x2 c:/ICPDAS/HMIWorks_Standard/lib/libgr.a(string.o)
 .bss.g_pusLanguageTable
                0x00000000        0x4 c:/ICPDAS/HMIWorks_Standard/lib/libgr.a(string.o)
 .bss.g_usLanguage
                0x00000000        0x2 c:/ICPDAS/HMIWorks_Standard/lib/libgr.a(string.o)
 .bss.g_usNumStrings
                0x00000000        0x2 c:/ICPDAS/HMIWorks_Standard/lib/libgr.a(string.o)
 .bss.g_pucStringData
                0x00000000        0x4 c:/ICPDAS/HMIWorks_Standard/lib/libgr.a(string.o)
 .bss.g_pulStringTable
                0x00000000        0x4 c:/ICPDAS/HMIWorks_Standard/lib/libgr.a(string.o)
 .text          0x00000000        0x0 c:/ICPDAS/HMIWorks_Standard/lib/libgr.a(widget.o)
 .data          0x00000000        0x0 c:/ICPDAS/HMIWorks_Standard/lib/libgr.a(widget.o)
 .bss           0x00000000        0x0 c:/ICPDAS/HMIWorks_Standard/lib/libgr.a(widget.o)
 .text          0x00000000        0x0 c:/ICPDAS/HMIWorks_Standard/lib/libgr.a(hmi_grlib.o)
 .data          0x00000000        0x0 c:/ICPDAS/HMIWorks_Standard/lib/libgr.a(hmi_grlib.o)
 .bss           0x00000000        0x0 c:/ICPDAS/HMIWorks_Standard/lib/libgr.a(hmi_grlib.o)
 .text          0x00000000        0x0 c:/ICPDAS/HMIWorks_Standard/lib/fonts.a(fontcm18.o)
 .data          0x00000000        0x0 c:/ICPDAS/HMIWorks_Standard/lib/fonts.a(fontcm18.o)
 .bss           0x00000000        0x0 c:/ICPDAS/HMIWorks_Standard/lib/fonts.a(fontcm18.o)
 .text          0x00000000        0x0 c:/ICPDAS/HMIWorks_Standard/lib/fonts.a(fontcm18b.o)
 .data          0x00000000        0x0 c:/ICPDAS/HMIWorks_Standard/lib/fonts.a(fontcm18b.o)
 .bss           0x00000000        0x0 c:/ICPDAS/HMIWorks_Standard/lib/fonts.a(fontcm18b.o)
 .text          0x00000000        0x0 c:/ICPDAS/HMIWorks_Standard/lib/fonts.a(fontcm18i.o)
 .data          0x00000000        0x0 c:/ICPDAS/HMIWorks_Standard/lib/fonts.a(fontcm18i.o)
 .bss           0x00000000        0x0 c:/ICPDAS/HMIWorks_Standard/lib/fonts.a(fontcm18i.o)
 .text          0x00000000        0x0 c:/ICPDAS/HMIWorks_Standard/lib/fonts.a(fontcm20b.o)
 .data          0x00000000        0x0 c:/ICPDAS/HMIWorks_Standard/lib/fonts.a(fontcm20b.o)
 .bss           0x00000000        0x0 c:/ICPDAS/HMIWorks_Standard/lib/fonts.a(fontcm20b.o)
 .text          0x00000000        0x0 c:/ICPDAS/HMIWorks_Standard/lib/fonts.a(fontcm22b.o)
 .data          0x00000000        0x0 c:/ICPDAS/HMIWorks_Standard/lib/fonts.a(fontcm22b.o)
 .bss           0x00000000        0x0 c:/ICPDAS/HMIWorks_Standard/lib/fonts.a(fontcm22b.o)
 .text          0x00000000        0x0 c:/ICPDAS/HMIWorks_Standard/lib/fonts.a(fontcm24b.o)
 .data          0x00000000        0x0 c:/ICPDAS/HMIWorks_Standard/lib/fonts.a(fontcm24b.o)
 .bss           0x00000000        0x0 c:/ICPDAS/HMIWorks_Standard/lib/fonts.a(fontcm24b.o)
 .text          0x00000000        0x0 c:/ICPDAS/HMIWorks_Standard/lib/fonts.a(fontcm26b.o)
 .data          0x00000000        0x0 c:/ICPDAS/HMIWorks_Standard/lib/fonts.a(fontcm26b.o)
 .bss           0x00000000        0x0 c:/ICPDAS/HMIWorks_Standard/lib/fonts.a(fontcm26b.o)
 .text          0x00000000        0x0 c:/ICPDAS/HMIWorks_Standard/lib/fonts.a(fontcm30b.o)
 .data          0x00000000        0x0 c:/ICPDAS/HMIWorks_Standard/lib/fonts.a(fontcm30b.o)
 .bss           0x00000000        0x0 c:/ICPDAS/HMIWorks_Standard/lib/fonts.a(fontcm30b.o)
 .text          0x00000000        0x0 c:/ICPDAS/HMIWorks_Standard/lib/fonts.a(fontcm42b.o)
 .data          0x00000000        0x0 c:/ICPDAS/HMIWorks_Standard/lib/fonts.a(fontcm42b.o)
 .bss           0x00000000        0x0 c:/ICPDAS/HMIWorks_Standard/lib/fonts.a(fontcm42b.o)
 .text          0x00000000        0x0 c:/ICPDAS/HMIWorks_Standard/lib/VPD-133.a(hmi_Init.o)
 .data          0x00000000        0x0 c:/ICPDAS/HMIWorks_Standard/lib/VPD-133.a(hmi_Init.o)
 .bss           0x00000000        0x0 c:/ICPDAS/HMIWorks_Standard/lib/VPD-133.a(hmi_Init.o)
 .text.hmi_WdtAutoClear
                0x00000000       0x16 c:/ICPDAS/HMIWorks_Standard/lib/VPD-133.a(hmi_Init.o)
 .text.hmi_BacklightGet
                0x00000000       0x10 c:/ICPDAS/HMIWorks_Standard/lib/VPD-133.a(hmi_Init.o)
 .text.hmi_LCDIdleSetTimeout
                0x00000000       0x16 c:/ICPDAS/HMIWorks_Standard/lib/VPD-133.a(hmi_Init.o)
 .text.hmi_LCDIdleSetBeep
                0x00000000       0x18 c:/ICPDAS/HMIWorks_Standard/lib/VPD-133.a(hmi_Init.o)
 .text.hmi_AddHighSpeedCallback
                0x00000000       0x18 c:/ICPDAS/HMIWorks_Standard/lib/VPD-133.a(hmi_Init.o)
 .text.hmi_RemoveHighSpeedCallback
                0x00000000       0x16 c:/ICPDAS/HMIWorks_Standard/lib/VPD-133.a(hmi_Init.o)
 .text.hmi_LCDIdleStatusReset
                0x00000000       0x16 c:/ICPDAS/HMIWorks_Standard/lib/VPD-133.a(hmi_Init.o)
 .text.hmi_LocalMACAddrGet
                0x00000000       0x20 c:/ICPDAS/HMIWorks_Standard/lib/VPD-133.a(hmi_Init.o)
 .text.hmi_SoftwareReset
                0x00000000        0x4 c:/ICPDAS/HMIWorks_Standard/lib/VPD-133.a(hmi_Init.o)
 .text          0x00000000        0x0 c:/ICPDAS/HMIWorks_Standard/lib/VPD-133.a(hmi_tcp.o)
 .data          0x00000000        0x0 c:/ICPDAS/HMIWorks_Standard/lib/VPD-133.a(hmi_tcp.o)
 .bss           0x00000000        0x0 c:/ICPDAS/HMIWorks_Standard/lib/VPD-133.a(hmi_tcp.o)
 .text.hmi_LocalIPAddrGet
                0x00000000       0x10 c:/ICPDAS/HMIWorks_Standard/lib/VPD-133.a(hmi_tcp.o)
 .text          0x00000000        0x0 c:/ICPDAS/HMIWorks_Standard/lib/VPD-133.a(hmi_uart.o)
 .data          0x00000000        0x0 c:/ICPDAS/HMIWorks_Standard/lib/VPD-133.a(hmi_uart.o)
 .bss           0x00000000        0x0 c:/ICPDAS/HMIWorks_Standard/lib/VPD-133.a(hmi_uart.o)
 .text.uart_Purge
                0x00000000       0x26 c:/ICPDAS/HMIWorks_Standard/lib/VPD-133.a(hmi_uart.o)
 .text          0x00000000        0x0 c:/ICPDAS/HMIWorks_Standard/lib/VPD-133.a(dcon_io.o)
 .data          0x00000000        0x0 c:/ICPDAS/HMIWorks_Standard/lib/VPD-133.a(dcon_io.o)
 .bss           0x00000000        0x0 c:/ICPDAS/HMIWorks_Standard/lib/VPD-133.a(dcon_io.o)
 .text          0x00000000        0x0 c:/ICPDAS/HMIWorks_Standard/lib/VPD-133.a(vpanel.o)
 .data          0x00000000        0x0 c:/ICPDAS/HMIWorks_Standard/lib/VPD-133.a(vpanel.o)
 .bss           0x00000000        0x0 c:/ICPDAS/HMIWorks_Standard/lib/VPD-133.a(vpanel.o)
 .text          0x00000000        0x0 c:/ICPDAS/HMIWorks_Standard/lib/VPD-133.a(beep.o)
 .data          0x00000000        0x0 c:/ICPDAS/HMIWorks_Standard/lib/VPD-133.a(beep.o)
 .bss           0x00000000        0x0 c:/ICPDAS/HMIWorks_Standard/lib/VPD-133.a(beep.o)
 .text.hmi_PlaySong
                0x00000000       0x10 c:/ICPDAS/HMIWorks_Standard/lib/VPD-133.a(beep.o)
 .text          0x00000000        0x0 c:/ICPDAS/HMIWorks_Standard/lib/VPD-133.a(mbrtu.o)
 .data          0x00000000        0x0 c:/ICPDAS/HMIWorks_Standard/lib/VPD-133.a(mbrtu.o)
 .bss           0x00000000        0x0 c:/ICPDAS/HMIWorks_Standard/lib/VPD-133.a(mbrtu.o)
 .text.mrs_GetIOStatus
                0x00000000       0x16 c:/ICPDAS/HMIWorks_Standard/lib/VPD-133.a(mbrtu.o)
 .text          0x00000000        0x0 c:/ICPDAS/HMIWorks_Standard/lib/VPD-133.a(mbtcp.o)
 .data          0x00000000        0x0 c:/ICPDAS/HMIWorks_Standard/lib/VPD-133.a(mbtcp.o)
 .bss           0x00000000        0x0 c:/ICPDAS/HMIWorks_Standard/lib/VPD-133.a(mbtcp.o)
 .text.mts_GetIOStatus
                0x00000000       0x16 c:/ICPDAS/HMIWorks_Standard/lib/VPD-133.a(mbtcp.o)
 .text          0x00000000        0x0 c:/ICPDAS/HMIWorks_Standard/lib/libdriver.a(flash.o)
 .data          0x00000000        0x0 c:/ICPDAS/HMIWorks_Standard/lib/libdriver.a(flash.o)
 .bss           0x00000000        0x0 c:/ICPDAS/HMIWorks_Standard/lib/libdriver.a(flash.o)
 .text.FlashUsecGet
                0x00000000        0xc c:/ICPDAS/HMIWorks_Standard/lib/libdriver.a(flash.o)
 .text.FlashUsecSet
                0x00000000        0xc c:/ICPDAS/HMIWorks_Standard/lib/libdriver.a(flash.o)
 .text.FlashErase
                0x00000000       0x34 c:/ICPDAS/HMIWorks_Standard/lib/libdriver.a(flash.o)
 .text.FlashProgram
                0x00000000       0xc0 c:/ICPDAS/HMIWorks_Standard/lib/libdriver.a(flash.o)
 .text.FlashProtectGet
                0x00000000       0x88 c:/ICPDAS/HMIWorks_Standard/lib/libdriver.a(flash.o)
 .text.FlashProtectSet
                0x00000000      0x110 c:/ICPDAS/HMIWorks_Standard/lib/libdriver.a(flash.o)
 .text.FlashProtectSave
                0x00000000       0x54 c:/ICPDAS/HMIWorks_Standard/lib/libdriver.a(flash.o)
 .text.FlashUserSet
                0x00000000       0x38 c:/ICPDAS/HMIWorks_Standard/lib/libdriver.a(flash.o)
 .text.FlashUserSave
                0x00000000       0x64 c:/ICPDAS/HMIWorks_Standard/lib/libdriver.a(flash.o)
 .text.FlashIntEnable
                0x00000000       0x10 c:/ICPDAS/HMIWorks_Standard/lib/libdriver.a(flash.o)
 .text.FlashIntDisable
                0x00000000       0x10 c:/ICPDAS/HMIWorks_Standard/lib/libdriver.a(flash.o)
 .text.FlashIntStatus
                0x00000000       0x14 c:/ICPDAS/HMIWorks_Standard/lib/libdriver.a(flash.o)
 .text.FlashIntClear
                0x00000000        0xc c:/ICPDAS/HMIWorks_Standard/lib/libdriver.a(flash.o)
 .text.FlashIntUnregister
                0x00000000       0x10 c:/ICPDAS/HMIWorks_Standard/lib/libdriver.a(flash.o)
 .text.FlashIntRegister
                0x00000000       0x14 c:/ICPDAS/HMIWorks_Standard/lib/libdriver.a(flash.o)
 .rodata.CSWTCH.6
                0x00000000        0x4 c:/ICPDAS/HMIWorks_Standard/lib/libdriver.a(flash.o)
 .rodata.g_pulFMPPERegs
                0x00000000       0x10 c:/ICPDAS/HMIWorks_Standard/lib/libdriver.a(flash.o)
 .rodata.g_pulFMPRERegs
                0x00000000       0x10 c:/ICPDAS/HMIWorks_Standard/lib/libdriver.a(flash.o)
 .text          0x00000000        0x0 c:/ICPDAS/HMIWorks_Standard/lib/libdriver.a(interrupt.o)
 .data          0x00000000        0x0 c:/ICPDAS/HMIWorks_Standard/lib/libdriver.a(interrupt.o)
 .bss           0x00000000        0x0 c:/ICPDAS/HMIWorks_Standard/lib/libdriver.a(interrupt.o)
 .text.IntDefaultHandler
                0x00000000        0x4 c:/ICPDAS/HMIWorks_Standard/lib/libdriver.a(interrupt.o)
 .text.IntRegister
                0x00000000       0x38 c:/ICPDAS/HMIWorks_Standard/lib/libdriver.a(interrupt.o)
 .text.IntUnregister
                0x00000000       0x14 c:/ICPDAS/HMIWorks_Standard/lib/libdriver.a(interrupt.o)
 .text.IntPriorityGroupingSet
                0x00000000       0x1c c:/ICPDAS/HMIWorks_Standard/lib/libdriver.a(interrupt.o)
 .text.IntPriorityGroupingGet
                0x00000000       0x24 c:/ICPDAS/HMIWorks_Standard/lib/libdriver.a(interrupt.o)
 .text.IntPrioritySet
                0x00000000       0x2c c:/ICPDAS/HMIWorks_Standard/lib/libdriver.a(interrupt.o)
 .text.IntPriorityGet
                0x00000000       0x20 c:/ICPDAS/HMIWorks_Standard/lib/libdriver.a(interrupt.o)
 .text.IntEnable
                0x00000000       0x70 c:/ICPDAS/HMIWorks_Standard/lib/libdriver.a(interrupt.o)
 .text.IntDisable
                0x00000000       0x70 c:/ICPDAS/HMIWorks_Standard/lib/libdriver.a(interrupt.o)
 .text.IntPendSet
                0x00000000       0x60 c:/ICPDAS/HMIWorks_Standard/lib/libdriver.a(interrupt.o)
 .text.IntPendClear
                0x00000000       0x50 c:/ICPDAS/HMIWorks_Standard/lib/libdriver.a(interrupt.o)
 .text.IntMasterDisable
                0x00000000        0xc c:/ICPDAS/HMIWorks_Standard/lib/libdriver.a(interrupt.o)
 .text.IntMasterEnable
                0x00000000        0xc c:/ICPDAS/HMIWorks_Standard/lib/libdriver.a(interrupt.o)
 vtable         0x00000000      0x11c c:/ICPDAS/HMIWorks_Standard/lib/libdriver.a(interrupt.o)
 .rodata.g_pulPriority
                0x00000000       0x20 c:/ICPDAS/HMIWorks_Standard/lib/libdriver.a(interrupt.o)
 .rodata.g_pulRegs
                0x00000000       0x48 c:/ICPDAS/HMIWorks_Standard/lib/libdriver.a(interrupt.o)
 .comment       0x00000000       0x23 c:/ICPDAS/HMIWorks_Standard/lib/libdriver.a(interrupt.o)
 .ARM.attributes
                0x00000000       0x31 c:/ICPDAS/HMIWorks_Standard/lib/libdriver.a(interrupt.o)
 .text          0x00000000        0x0 c:/ICPDAS/HMIWorks_Standard/lib/libdriver.a(sysctl.o)
 .data          0x00000000        0x0 c:/ICPDAS/HMIWorks_Standard/lib/libdriver.a(sysctl.o)
 .bss           0x00000000        0x0 c:/ICPDAS/HMIWorks_Standard/lib/libdriver.a(sysctl.o)
 .text.SysCtlSRAMSizeGet
                0x00000000       0x14 c:/ICPDAS/HMIWorks_Standard/lib/libdriver.a(sysctl.o)
 .text.SysCtlFlashSizeGet
                0x00000000       0x14 c:/ICPDAS/HMIWorks_Standard/lib/libdriver.a(sysctl.o)
 .text.SysCtlPinPresent
                0x00000000       0x14 c:/ICPDAS/HMIWorks_Standard/lib/libdriver.a(sysctl.o)
 .text.SysCtlPeripheralPresent
                0x00000000       0x40 c:/ICPDAS/HMIWorks_Standard/lib/libdriver.a(sysctl.o)
 .text.SysCtlPeripheralReset
                0x00000000       0x3c c:/ICPDAS/HMIWorks_Standard/lib/libdriver.a(sysctl.o)
 .text.SysCtlPeripheralEnable
                0x00000000       0x20 c:/ICPDAS/HMIWorks_Standard/lib/libdriver.a(sysctl.o)
 .text.SysCtlPeripheralDisable
                0x00000000       0x20 c:/ICPDAS/HMIWorks_Standard/lib/libdriver.a(sysctl.o)
 .text.SysCtlPeripheralSleepEnable
                0x00000000       0x20 c:/ICPDAS/HMIWorks_Standard/lib/libdriver.a(sysctl.o)
 .text.SysCtlPeripheralSleepDisable
                0x00000000       0x20 c:/ICPDAS/HMIWorks_Standard/lib/libdriver.a(sysctl.o)
 .text.SysCtlPeripheralDeepSleepEnable
                0x00000000       0x20 c:/ICPDAS/HMIWorks_Standard/lib/libdriver.a(sysctl.o)
 .text.SysCtlPeripheralDeepSleepDisable
                0x00000000       0x20 c:/ICPDAS/HMIWorks_Standard/lib/libdriver.a(sysctl.o)
 .text.SysCtlPeripheralClockGating
                0x00000000       0x1c c:/ICPDAS/HMIWorks_Standard/lib/libdriver.a(sysctl.o)
 .text.SysCtlIntEnable
                0x00000000       0x10 c:/ICPDAS/HMIWorks_Standard/lib/libdriver.a(sysctl.o)
 .text.SysCtlIntDisable
                0x00000000       0x10 c:/ICPDAS/HMIWorks_Standard/lib/libdriver.a(sysctl.o)
 .text.SysCtlIntClear
                0x00000000        0xc c:/ICPDAS/HMIWorks_Standard/lib/libdriver.a(sysctl.o)
 .text.SysCtlIntStatus
                0x00000000       0x14 c:/ICPDAS/HMIWorks_Standard/lib/libdriver.a(sysctl.o)
 .text.SysCtlLDOSet
                0x00000000        0xc c:/ICPDAS/HMIWorks_Standard/lib/libdriver.a(sysctl.o)
 .text.SysCtlLDOGet
                0x00000000        0xc c:/ICPDAS/HMIWorks_Standard/lib/libdriver.a(sysctl.o)
 .text.SysCtlLDOConfigSet
                0x00000000        0xc c:/ICPDAS/HMIWorks_Standard/lib/libdriver.a(sysctl.o)
 .text.SysCtlReset
                0x00000000       0x10 c:/ICPDAS/HMIWorks_Standard/lib/libdriver.a(sysctl.o)
 .text.SysCtlResetCauseGet
                0x00000000        0xc c:/ICPDAS/HMIWorks_Standard/lib/libdriver.a(sysctl.o)
 .text.SysCtlResetCauseClear
                0x00000000       0x10 c:/ICPDAS/HMIWorks_Standard/lib/libdriver.a(sysctl.o)
 .text.SysCtlBrownOutConfigSet
                0x00000000       0x10 c:/ICPDAS/HMIWorks_Standard/lib/libdriver.a(sysctl.o)
 .text.SysCtlDelay
                0x00000000        0x8 c:/ICPDAS/HMIWorks_Standard/lib/libdriver.a(sysctl.o)
 .text.SysCtlClockSet
                0x00000000      0x16c c:/ICPDAS/HMIWorks_Standard/lib/libdriver.a(sysctl.o)
 .text.SysCtlClockGet
                0x00000000      0x1f4 c:/ICPDAS/HMIWorks_Standard/lib/libdriver.a(sysctl.o)
 .text.SysCtlPWMClockSet
                0x00000000       0x14 c:/ICPDAS/HMIWorks_Standard/lib/libdriver.a(sysctl.o)
 .text.SysCtlPWMClockGet
                0x00000000       0x18 c:/ICPDAS/HMIWorks_Standard/lib/libdriver.a(sysctl.o)
 .text.SysCtlADCSpeedSet
                0x00000000       0x20 c:/ICPDAS/HMIWorks_Standard/lib/libdriver.a(sysctl.o)
 .text.SysCtlADCSpeedGet
                0x00000000       0x10 c:/ICPDAS/HMIWorks_Standard/lib/libdriver.a(sysctl.o)
 .text.SysCtlIOSCVerificationSet
                0x00000000       0x1c c:/ICPDAS/HMIWorks_Standard/lib/libdriver.a(sysctl.o)
 .text.SysCtlMOSCVerificationSet
                0x00000000       0x1c c:/ICPDAS/HMIWorks_Standard/lib/libdriver.a(sysctl.o)
 .text.SysCtlPLLVerificationSet
                0x00000000       0x1c c:/ICPDAS/HMIWorks_Standard/lib/libdriver.a(sysctl.o)
 .text.SysCtlClkVerificationClear
                0x00000000       0x10 c:/ICPDAS/HMIWorks_Standard/lib/libdriver.a(sysctl.o)
 .text.SysCtlGPIOAHBEnable
                0x00000000       0x10 c:/ICPDAS/HMIWorks_Standard/lib/libdriver.a(sysctl.o)
 .text.SysCtlGPIOAHBDisable
                0x00000000       0x14 c:/ICPDAS/HMIWorks_Standard/lib/libdriver.a(sysctl.o)
 .text.SysCtlUSBPLLEnable
                0x00000000       0x10 c:/ICPDAS/HMIWorks_Standard/lib/libdriver.a(sysctl.o)
 .text.SysCtlUSBPLLDisable
                0x00000000       0x10 c:/ICPDAS/HMIWorks_Standard/lib/libdriver.a(sysctl.o)
 .text.SysCtlI2SMClkSet
                0x00000000       0xe4 c:/ICPDAS/HMIWorks_Standard/lib/libdriver.a(sysctl.o)
 .text.SysCtlDeepSleep
                0x00000000       0x20 c:/ICPDAS/HMIWorks_Standard/lib/libdriver.a(sysctl.o)
 .text.SysCtlSleep
                0x00000000        0x8 c:/ICPDAS/HMIWorks_Standard/lib/libdriver.a(sysctl.o)
 .text.SysCtlIntUnregister
                0x00000000       0x10 c:/ICPDAS/HMIWorks_Standard/lib/libdriver.a(sysctl.o)
 .text.SysCtlIntRegister
                0x00000000       0x14 c:/ICPDAS/HMIWorks_Standard/lib/libdriver.a(sysctl.o)
 .rodata.g_pulDCRegs
                0x00000000       0x10 c:/ICPDAS/HMIWorks_Standard/lib/libdriver.a(sysctl.o)
 .rodata.g_pulXtals
                0x00000000       0x5c c:/ICPDAS/HMIWorks_Standard/lib/libdriver.a(sysctl.o)
 .rodata.g_pulDCGCRegs
                0x00000000        0xc c:/ICPDAS/HMIWorks_Standard/lib/libdriver.a(sysctl.o)
 .rodata.g_pulRCGCRegs
                0x00000000        0xc c:/ICPDAS/HMIWorks_Standard/lib/libdriver.a(sysctl.o)
 .rodata.g_pulSCGCRegs
                0x00000000        0xc c:/ICPDAS/HMIWorks_Standard/lib/libdriver.a(sysctl.o)
 .rodata.g_pulSRCRRegs
                0x00000000        0xc c:/ICPDAS/HMIWorks_Standard/lib/libdriver.a(sysctl.o)
 .comment       0x00000000       0x23 c:/ICPDAS/HMIWorks_Standard/lib/libdriver.a(sysctl.o)
 .ARM.attributes
                0x00000000       0x31 c:/ICPDAS/HMIWorks_Standard/lib/libdriver.a(sysctl.o)
 .text          0x00000000        0x0 c:/ICPDAS/HMIWorks_Standard/lib/libdriver.a(watchdog.o)
 .data          0x00000000        0x0 c:/ICPDAS/HMIWorks_Standard/lib/libdriver.a(watchdog.o)
 .bss           0x00000000        0x0 c:/ICPDAS/HMIWorks_Standard/lib/libdriver.a(watchdog.o)
 .text.WatchdogRunning
                0x00000000        0x8 c:/ICPDAS/HMIWorks_Standard/lib/libdriver.a(watchdog.o)
 .text.WatchdogEnable
                0x00000000        0xc c:/ICPDAS/HMIWorks_Standard/lib/libdriver.a(watchdog.o)
 .text.WatchdogResetEnable
                0x00000000        0xc c:/ICPDAS/HMIWorks_Standard/lib/libdriver.a(watchdog.o)
 .text.WatchdogResetDisable
                0x00000000        0xc c:/ICPDAS/HMIWorks_Standard/lib/libdriver.a(watchdog.o)
 .text.WatchdogLock
                0x00000000        0x8 c:/ICPDAS/HMIWorks_Standard/lib/libdriver.a(watchdog.o)
 .text.WatchdogUnlock
                0x00000000        0xc c:/ICPDAS/HMIWorks_Standard/lib/libdriver.a(watchdog.o)
 .text.WatchdogLockState
                0x00000000       0x10 c:/ICPDAS/HMIWorks_Standard/lib/libdriver.a(watchdog.o)
 .text.WatchdogReloadSet
                0x00000000        0x4 c:/ICPDAS/HMIWorks_Standard/lib/libdriver.a(watchdog.o)
 .text.WatchdogReloadGet
                0x00000000        0x4 c:/ICPDAS/HMIWorks_Standard/lib/libdriver.a(watchdog.o)
 .text.WatchdogValueGet
                0x00000000        0x4 c:/ICPDAS/HMIWorks_Standard/lib/libdriver.a(watchdog.o)
 .text.WatchdogIntEnable
                0x00000000        0xc c:/ICPDAS/HMIWorks_Standard/lib/libdriver.a(watchdog.o)
 .text.WatchdogIntStatus
                0x00000000        0xc c:/ICPDAS/HMIWorks_Standard/lib/libdriver.a(watchdog.o)
 .text.WatchdogIntClear
                0x00000000        0x8 c:/ICPDAS/HMIWorks_Standard/lib/libdriver.a(watchdog.o)
 .text.WatchdogStallEnable
                0x00000000       0x10 c:/ICPDAS/HMIWorks_Standard/lib/libdriver.a(watchdog.o)
 .text.WatchdogStallDisable
                0x00000000       0x10 c:/ICPDAS/HMIWorks_Standard/lib/libdriver.a(watchdog.o)
 .text.WatchdogIntUnregister
                0x00000000       0x10 c:/ICPDAS/HMIWorks_Standard/lib/libdriver.a(watchdog.o)
 .text.WatchdogIntRegister
                0x00000000       0x10 c:/ICPDAS/HMIWorks_Standard/lib/libdriver.a(watchdog.o)
 .comment       0x00000000       0x23 c:/ICPDAS/HMIWorks_Standard/lib/libdriver.a(watchdog.o)
 .ARM.attributes
                0x00000000       0x31 c:/ICPDAS/HMIWorks_Standard/lib/libdriver.a(watchdog.o)
 .text          0x00000000        0x0 c:/ICPDAS/HMIWorks_Standard/lib/libdriver.a(cpu.o)
 .data          0x00000000        0x0 c:/ICPDAS/HMIWorks_Standard/lib/libdriver.a(cpu.o)
 .bss           0x00000000        0x0 c:/ICPDAS/HMIWorks_Standard/lib/libdriver.a(cpu.o)
 .text.CPUcpsid
                0x00000000        0x8 c:/ICPDAS/HMIWorks_Standard/lib/libdriver.a(cpu.o)
 .text.CPUprimask
                0x00000000        0x8 c:/ICPDAS/HMIWorks_Standard/lib/libdriver.a(cpu.o)
 .text.CPUcpsie
                0x00000000        0x8 c:/ICPDAS/HMIWorks_Standard/lib/libdriver.a(cpu.o)
 .text.CPUwfi   0x00000000        0x4 c:/ICPDAS/HMIWorks_Standard/lib/libdriver.a(cpu.o)
 .comment       0x00000000       0x23 c:/ICPDAS/HMIWorks_Standard/lib/libdriver.a(cpu.o)
 .ARM.attributes
                0x00000000       0x31 c:/ICPDAS/HMIWorks_Standard/lib/libdriver.a(cpu.o)
 .text          0x00000000        0x0 c:/icpdas/hmiworks_standard/gcc/bin/../lib/gcc/arm-none-eabi/4.8.3/../../../../arm-none-eabi/lib/armv7-m/libc.a(lib_a-atoi.o)
 .data          0x00000000        0x0 c:/icpdas/hmiworks_standard/gcc/bin/../lib/gcc/arm-none-eabi/4.8.3/../../../../arm-none-eabi/lib/armv7-m/libc.a(lib_a-atoi.o)
 .bss           0x00000000        0x0 c:/icpdas/hmiworks_standard/gcc/bin/../lib/gcc/arm-none-eabi/4.8.3/../../../../arm-none-eabi/lib/armv7-m/libc.a(lib_a-atoi.o)
 .text._atoi_r  0x00000000        0x8 c:/icpdas/hmiworks_standard/gcc/bin/../lib/gcc/arm-none-eabi/4.8.3/../../../../arm-none-eabi/lib/armv7-m/libc.a(lib_a-atoi.o)
 .text          0x00000000        0x0 c:/icpdas/hmiworks_standard/gcc/bin/../lib/gcc/arm-none-eabi/4.8.3/../../../../arm-none-eabi/lib/armv7-m/libc.a(lib_a-ctype_.o)
 .data          0x00000000        0x0 c:/icpdas/hmiworks_standard/gcc/bin/../lib/gcc/arm-none-eabi/4.8.3/../../../../arm-none-eabi/lib/armv7-m/libc.a(lib_a-ctype_.o)
 .bss           0x00000000        0x0 c:/icpdas/hmiworks_standard/gcc/bin/../lib/gcc/arm-none-eabi/4.8.3/../../../../arm-none-eabi/lib/armv7-m/libc.a(lib_a-ctype_.o)
 .text          0x00000000        0x0 c:/icpdas/hmiworks_standard/gcc/bin/../lib/gcc/arm-none-eabi/4.8.3/../../../../arm-none-eabi/lib/armv7-m/libc.a(lib_a-malloc.o)
 .data          0x00000000        0x0 c:/icpdas/hmiworks_standard/gcc/bin/../lib/gcc/arm-none-eabi/4.8.3/../../../../arm-none-eabi/lib/armv7-m/libc.a(lib_a-malloc.o)
 .bss           0x00000000        0x0 c:/icpdas/hmiworks_standard/gcc/bin/../lib/gcc/arm-none-eabi/4.8.3/../../../../arm-none-eabi/lib/armv7-m/libc.a(lib_a-malloc.o)
 .text          0x00000000        0x0 c:/icpdas/hmiworks_standard/gcc/bin/../lib/gcc/arm-none-eabi/4.8.3/../../../../arm-none-eabi/lib/armv7-m/libc.a(lib_a-mallocr.o)
 .data          0x00000000        0x0 c:/icpdas/hmiworks_standard/gcc/bin/../lib/gcc/arm-none-eabi/4.8.3/../../../../arm-none-eabi/lib/armv7-m/libc.a(lib_a-mallocr.o)
 .bss           0x00000000        0x0 c:/icpdas/hmiworks_standard/gcc/bin/../lib/gcc/arm-none-eabi/4.8.3/../../../../arm-none-eabi/lib/armv7-m/libc.a(lib_a-mallocr.o)
 .data          0x00000000        0x0 c:/icpdas/hmiworks_standard/gcc/bin/../lib/gcc/arm-none-eabi/4.8.3/../../../../arm-none-eabi/lib/armv7-m/libc.a(lib_a-memcpy.o)
 .bss           0x00000000        0x0 c:/icpdas/hmiworks_standard/gcc/bin/../lib/gcc/arm-none-eabi/4.8.3/../../../../arm-none-eabi/lib/armv7-m/libc.a(lib_a-memcpy.o)
 .text          0x00000000        0x0 c:/icpdas/hmiworks_standard/gcc/bin/../lib/gcc/arm-none-eabi/4.8.3/../../../../arm-none-eabi/lib/armv7-m/libc.a(lib_a-memset.o)
 .data          0x00000000        0x0 c:/icpdas/hmiworks_standard/gcc/bin/../lib/gcc/arm-none-eabi/4.8.3/../../../../arm-none-eabi/lib/armv7-m/libc.a(lib_a-memset.o)
 .bss           0x00000000        0x0 c:/icpdas/hmiworks_standard/gcc/bin/../lib/gcc/arm-none-eabi/4.8.3/../../../../arm-none-eabi/lib/armv7-m/libc.a(lib_a-memset.o)
 .text          0x00000000        0x0 c:/icpdas/hmiworks_standard/gcc/bin/../lib/gcc/arm-none-eabi/4.8.3/../../../../arm-none-eabi/lib/armv7-m/libc.a(lib_a-mlock.o)
 .data          0x00000000        0x0 c:/icpdas/hmiworks_standard/gcc/bin/../lib/gcc/arm-none-eabi/4.8.3/../../../../arm-none-eabi/lib/armv7-m/libc.a(lib_a-mlock.o)
 .bss           0x00000000        0x0 c:/icpdas/hmiworks_standard/gcc/bin/../lib/gcc/arm-none-eabi/4.8.3/../../../../arm-none-eabi/lib/armv7-m/libc.a(lib_a-mlock.o)
 .text          0x00000000        0x0 c:/icpdas/hmiworks_standard/gcc/bin/../lib/gcc/arm-none-eabi/4.8.3/../../../../arm-none-eabi/lib/armv7-m/libc.a(lib_a-sprintf.o)
 .data          0x00000000        0x0 c:/icpdas/hmiworks_standard/gcc/bin/../lib/gcc/arm-none-eabi/4.8.3/../../../../arm-none-eabi/lib/armv7-m/libc.a(lib_a-sprintf.o)
 .bss           0x00000000        0x0 c:/icpdas/hmiworks_standard/gcc/bin/../lib/gcc/arm-none-eabi/4.8.3/../../../../arm-none-eabi/lib/armv7-m/libc.a(lib_a-sprintf.o)
 .text._sprintf_r
                0x00000000       0x44 c:/icpdas/hmiworks_standard/gcc/bin/../lib/gcc/arm-none-eabi/4.8.3/../../../../arm-none-eabi/lib/armv7-m/libc.a(lib_a-sprintf.o)
 .text          0x00000000        0x0 c:/icpdas/hmiworks_standard/gcc/bin/../lib/gcc/arm-none-eabi/4.8.3/../../../../arm-none-eabi/lib/armv7-m/libc.a(lib_a-strcat.o)
 .data          0x00000000        0x0 c:/icpdas/hmiworks_standard/gcc/bin/../lib/gcc/arm-none-eabi/4.8.3/../../../../arm-none-eabi/lib/armv7-m/libc.a(lib_a-strcat.o)
 .bss           0x00000000        0x0 c:/icpdas/hmiworks_standard/gcc/bin/../lib/gcc/arm-none-eabi/4.8.3/../../../../arm-none-eabi/lib/armv7-m/libc.a(lib_a-strcat.o)
 .data          0x00000000        0x0 c:/icpdas/hmiworks_standard/gcc/bin/../lib/gcc/arm-none-eabi/4.8.3/../../../../arm-none-eabi/lib/armv7-m/libc.a(lib_a-strcmp.o)
 .bss           0x00000000        0x0 c:/icpdas/hmiworks_standard/gcc/bin/../lib/gcc/arm-none-eabi/4.8.3/../../../../arm-none-eabi/lib/armv7-m/libc.a(lib_a-strcmp.o)
 .text          0x00000000        0x0 c:/icpdas/hmiworks_standard/gcc/bin/../lib/gcc/arm-none-eabi/4.8.3/../../../../arm-none-eabi/lib/armv7-m/libc.a(lib_a-strcpy.o)
 .data          0x00000000        0x0 c:/icpdas/hmiworks_standard/gcc/bin/../lib/gcc/arm-none-eabi/4.8.3/../../../../arm-none-eabi/lib/armv7-m/libc.a(lib_a-strcpy.o)
 .bss           0x00000000        0x0 c:/icpdas/hmiworks_standard/gcc/bin/../lib/gcc/arm-none-eabi/4.8.3/../../../../arm-none-eabi/lib/armv7-m/libc.a(lib_a-strcpy.o)
 .text          0x00000000        0x0 c:/icpdas/hmiworks_standard/gcc/bin/../lib/gcc/arm-none-eabi/4.8.3/../../../../arm-none-eabi/lib/armv7-m/libc.a(lib_a-strlen.o)
 .data          0x00000000        0x0 c:/icpdas/hmiworks_standard/gcc/bin/../lib/gcc/arm-none-eabi/4.8.3/../../../../arm-none-eabi/lib/armv7-m/libc.a(lib_a-strlen.o)
 .bss           0x00000000        0x0 c:/icpdas/hmiworks_standard/gcc/bin/../lib/gcc/arm-none-eabi/4.8.3/../../../../arm-none-eabi/lib/armv7-m/libc.a(lib_a-strlen.o)
 .text          0x00000000        0x0 c:/icpdas/hmiworks_standard/gcc/bin/../lib/gcc/arm-none-eabi/4.8.3/../../../../arm-none-eabi/lib/armv7-m/libc.a(lib_a-strncpy.o)
 .data          0x00000000        0x0 c:/icpdas/hmiworks_standard/gcc/bin/../lib/gcc/arm-none-eabi/4.8.3/../../../../arm-none-eabi/lib/armv7-m/libc.a(lib_a-strncpy.o)
 .bss           0x00000000        0x0 c:/icpdas/hmiworks_standard/gcc/bin/../lib/gcc/arm-none-eabi/4.8.3/../../../../arm-none-eabi/lib/armv7-m/libc.a(lib_a-strncpy.o)
 .text          0x00000000        0x0 c:/icpdas/hmiworks_standard/gcc/bin/../lib/gcc/arm-none-eabi/4.8.3/../../../../arm-none-eabi/lib/armv7-m/libc.a(lib_a-strtod.o)
 .data          0x00000000        0x0 c:/icpdas/hmiworks_standard/gcc/bin/../lib/gcc/arm-none-eabi/4.8.3/../../../../arm-none-eabi/lib/armv7-m/libc.a(lib_a-strtod.o)
 .bss           0x00000000        0x0 c:/icpdas/hmiworks_standard/gcc/bin/../lib/gcc/arm-none-eabi/4.8.3/../../../../arm-none-eabi/lib/armv7-m/libc.a(lib_a-strtod.o)
 .text.strtod   0x00000000       0x10 c:/icpdas/hmiworks_standard/gcc/bin/../lib/gcc/arm-none-eabi/4.8.3/../../../../arm-none-eabi/lib/armv7-m/libc.a(lib_a-strtod.o)
 .text          0x00000000        0x0 c:/icpdas/hmiworks_standard/gcc/bin/../lib/gcc/arm-none-eabi/4.8.3/../../../../arm-none-eabi/lib/armv7-m/libc.a(lib_a-strtol.o)
 .data          0x00000000        0x0 c:/icpdas/hmiworks_standard/gcc/bin/../lib/gcc/arm-none-eabi/4.8.3/../../../../arm-none-eabi/lib/armv7-m/libc.a(lib_a-strtol.o)
 .bss           0x00000000        0x0 c:/icpdas/hmiworks_standard/gcc/bin/../lib/gcc/arm-none-eabi/4.8.3/../../../../arm-none-eabi/lib/armv7-m/libc.a(lib_a-strtol.o)
 .text          0x00000000        0x0 c:/icpdas/hmiworks_standard/gcc/bin/../lib/gcc/arm-none-eabi/4.8.3/../../../../arm-none-eabi/lib/armv7-m/libc.a(lib_a-svfprintf.o)
 .data          0x00000000        0x0 c:/icpdas/hmiworks_standard/gcc/bin/../lib/gcc/arm-none-eabi/4.8.3/../../../../arm-none-eabi/lib/armv7-m/libc.a(lib_a-svfprintf.o)
 .bss           0x00000000        0x0 c:/icpdas/hmiworks_standard/gcc/bin/../lib/gcc/arm-none-eabi/4.8.3/../../../../arm-none-eabi/lib/armv7-m/libc.a(lib_a-svfprintf.o)
 .text          0x00000000        0x0 c:/icpdas/hmiworks_standard/gcc/bin/../lib/gcc/arm-none-eabi/4.8.3/../../../../arm-none-eabi/lib/armv7-m/libc.a(tpd_syscalls.o)
 .data          0x00000000        0x0 c:/icpdas/hmiworks_standard/gcc/bin/../lib/gcc/arm-none-eabi/4.8.3/../../../../arm-none-eabi/lib/armv7-m/libc.a(tpd_syscalls.o)
 .bss           0x00000000        0x0 c:/icpdas/hmiworks_standard/gcc/bin/../lib/gcc/arm-none-eabi/4.8.3/../../../../arm-none-eabi/lib/armv7-m/libc.a(tpd_syscalls.o)
 .text          0x00000000        0x0 c:/icpdas/hmiworks_standard/gcc/bin/../lib/gcc/arm-none-eabi/4.8.3/../../../../arm-none-eabi/lib/armv7-m/libc.a(lib_a-dtoa.o)
 .data          0x00000000        0x0 c:/icpdas/hmiworks_standard/gcc/bin/../lib/gcc/arm-none-eabi/4.8.3/../../../../arm-none-eabi/lib/armv7-m/libc.a(lib_a-dtoa.o)
 .bss           0x00000000        0x0 c:/icpdas/hmiworks_standard/gcc/bin/../lib/gcc/arm-none-eabi/4.8.3/../../../../arm-none-eabi/lib/armv7-m/libc.a(lib_a-dtoa.o)
 .text          0x00000000        0x0 c:/icpdas/hmiworks_standard/gcc/bin/../lib/gcc/arm-none-eabi/4.8.3/../../../../arm-none-eabi/lib/armv7-m/libc.a(lib_a-freer.o)
 .data          0x00000000        0x0 c:/icpdas/hmiworks_standard/gcc/bin/../lib/gcc/arm-none-eabi/4.8.3/../../../../arm-none-eabi/lib/armv7-m/libc.a(lib_a-freer.o)
 .bss           0x00000000        0x0 c:/icpdas/hmiworks_standard/gcc/bin/../lib/gcc/arm-none-eabi/4.8.3/../../../../arm-none-eabi/lib/armv7-m/libc.a(lib_a-freer.o)
 .text          0x00000000        0x0 c:/icpdas/hmiworks_standard/gcc/bin/../lib/gcc/arm-none-eabi/4.8.3/../../../../arm-none-eabi/lib/armv7-m/libc.a(lib_a-gdtoa-gethex.o)
 .data          0x00000000        0x0 c:/icpdas/hmiworks_standard/gcc/bin/../lib/gcc/arm-none-eabi/4.8.3/../../../../arm-none-eabi/lib/armv7-m/libc.a(lib_a-gdtoa-gethex.o)
 .bss           0x00000000        0x0 c:/icpdas/hmiworks_standard/gcc/bin/../lib/gcc/arm-none-eabi/4.8.3/../../../../arm-none-eabi/lib/armv7-m/libc.a(lib_a-gdtoa-gethex.o)
 .text          0x00000000        0x0 c:/icpdas/hmiworks_standard/gcc/bin/../lib/gcc/arm-none-eabi/4.8.3/../../../../arm-none-eabi/lib/armv7-m/libc.a(lib_a-gdtoa-hexnan.o)
 .data          0x00000000        0x0 c:/icpdas/hmiworks_standard/gcc/bin/../lib/gcc/arm-none-eabi/4.8.3/../../../../arm-none-eabi/lib/armv7-m/libc.a(lib_a-gdtoa-hexnan.o)
 .bss           0x00000000        0x0 c:/icpdas/hmiworks_standard/gcc/bin/../lib/gcc/arm-none-eabi/4.8.3/../../../../arm-none-eabi/lib/armv7-m/libc.a(lib_a-gdtoa-hexnan.o)
 .text          0x00000000        0x0 c:/icpdas/hmiworks_standard/gcc/bin/../lib/gcc/arm-none-eabi/4.8.3/../../../../arm-none-eabi/lib/armv7-m/libc.a(lib_a-impure.o)
 .data          0x00000000        0x0 c:/icpdas/hmiworks_standard/gcc/bin/../lib/gcc/arm-none-eabi/4.8.3/../../../../arm-none-eabi/lib/armv7-m/libc.a(lib_a-impure.o)
 .bss           0x00000000        0x0 c:/icpdas/hmiworks_standard/gcc/bin/../lib/gcc/arm-none-eabi/4.8.3/../../../../arm-none-eabi/lib/armv7-m/libc.a(lib_a-impure.o)
 .rodata._global_impure_ptr
                0x00000000        0x4 c:/icpdas/hmiworks_standard/gcc/bin/../lib/gcc/arm-none-eabi/4.8.3/../../../../arm-none-eabi/lib/armv7-m/libc.a(lib_a-impure.o)
 .text          0x00000000        0x0 c:/icpdas/hmiworks_standard/gcc/bin/../lib/gcc/arm-none-eabi/4.8.3/../../../../arm-none-eabi/lib/armv7-m/libc.a(lib_a-locale.o)
 .data          0x00000000        0x0 c:/icpdas/hmiworks_standard/gcc/bin/../lib/gcc/arm-none-eabi/4.8.3/../../../../arm-none-eabi/lib/armv7-m/libc.a(lib_a-locale.o)
 .bss           0x00000000        0x0 c:/icpdas/hmiworks_standard/gcc/bin/../lib/gcc/arm-none-eabi/4.8.3/../../../../arm-none-eabi/lib/armv7-m/libc.a(lib_a-locale.o)
 .text._setlocale_r
                0x00000000       0x40 c:/icpdas/hmiworks_standard/gcc/bin/../lib/gcc/arm-none-eabi/4.8.3/../../../../arm-none-eabi/lib/armv7-m/libc.a(lib_a-locale.o)
 .text.__locale_charset
                0x00000000        0x8 c:/icpdas/hmiworks_standard/gcc/bin/../lib/gcc/arm-none-eabi/4.8.3/../../../../arm-none-eabi/lib/armv7-m/libc.a(lib_a-locale.o)
 .text.__locale_mb_cur_max
                0x00000000        0xc c:/icpdas/hmiworks_standard/gcc/bin/../lib/gcc/arm-none-eabi/4.8.3/../../../../arm-none-eabi/lib/armv7-m/libc.a(lib_a-locale.o)
 .text.__locale_msgcharset
                0x00000000        0x8 c:/icpdas/hmiworks_standard/gcc/bin/../lib/gcc/arm-none-eabi/4.8.3/../../../../arm-none-eabi/lib/armv7-m/libc.a(lib_a-locale.o)
 .text.__locale_cjk_lang
                0x00000000        0x4 c:/icpdas/hmiworks_standard/gcc/bin/../lib/gcc/arm-none-eabi/4.8.3/../../../../arm-none-eabi/lib/armv7-m/libc.a(lib_a-locale.o)
 .text.setlocale
                0x00000000       0x10 c:/icpdas/hmiworks_standard/gcc/bin/../lib/gcc/arm-none-eabi/4.8.3/../../../../arm-none-eabi/lib/armv7-m/libc.a(lib_a-locale.o)
 .text.localeconv
                0x00000000        0x8 c:/icpdas/hmiworks_standard/gcc/bin/../lib/gcc/arm-none-eabi/4.8.3/../../../../arm-none-eabi/lib/armv7-m/libc.a(lib_a-locale.o)
 .data.lc_message_charset
                0x00000000       0x20 c:/icpdas/hmiworks_standard/gcc/bin/../lib/gcc/arm-none-eabi/4.8.3/../../../../arm-none-eabi/lib/armv7-m/libc.a(lib_a-locale.o)
 .bss._PathLocale
                0x00000000        0x4 c:/icpdas/hmiworks_standard/gcc/bin/../lib/gcc/arm-none-eabi/4.8.3/../../../../arm-none-eabi/lib/armv7-m/libc.a(lib_a-locale.o)
 .bss.__nlocale_changed
                0x00000000        0x4 c:/icpdas/hmiworks_standard/gcc/bin/../lib/gcc/arm-none-eabi/4.8.3/../../../../arm-none-eabi/lib/armv7-m/libc.a(lib_a-locale.o)
 .bss.__mlocale_changed
                0x00000000        0x4 c:/icpdas/hmiworks_standard/gcc/bin/../lib/gcc/arm-none-eabi/4.8.3/../../../../arm-none-eabi/lib/armv7-m/libc.a(lib_a-locale.o)
 .data.lc_ctype_charset
                0x00000000       0x20 c:/icpdas/hmiworks_standard/gcc/bin/../lib/gcc/arm-none-eabi/4.8.3/../../../../arm-none-eabi/lib/armv7-m/libc.a(lib_a-locale.o)
 .data.__mb_cur_max
                0x00000000        0x4 c:/icpdas/hmiworks_standard/gcc/bin/../lib/gcc/arm-none-eabi/4.8.3/../../../../arm-none-eabi/lib/armv7-m/libc.a(lib_a-locale.o)
 .text          0x00000000        0x0 c:/icpdas/hmiworks_standard/gcc/bin/../lib/gcc/arm-none-eabi/4.8.3/../../../../arm-none-eabi/lib/armv7-m/libc.a(lib_a-memchr-stub.o)
 .data          0x00000000        0x0 c:/icpdas/hmiworks_standard/gcc/bin/../lib/gcc/arm-none-eabi/4.8.3/../../../../arm-none-eabi/lib/armv7-m/libc.a(lib_a-memchr-stub.o)
 .bss           0x00000000        0x0 c:/icpdas/hmiworks_standard/gcc/bin/../lib/gcc/arm-none-eabi/4.8.3/../../../../arm-none-eabi/lib/armv7-m/libc.a(lib_a-memchr-stub.o)
 .text          0x00000000        0x0 c:/icpdas/hmiworks_standard/gcc/bin/../lib/gcc/arm-none-eabi/4.8.3/../../../../arm-none-eabi/lib/armv7-m/libc.a(lib_a-mprec.o)
 .data          0x00000000        0x0 c:/icpdas/hmiworks_standard/gcc/bin/../lib/gcc/arm-none-eabi/4.8.3/../../../../arm-none-eabi/lib/armv7-m/libc.a(lib_a-mprec.o)
 .bss           0x00000000        0x0 c:/icpdas/hmiworks_standard/gcc/bin/../lib/gcc/arm-none-eabi/4.8.3/../../../../arm-none-eabi/lib/armv7-m/libc.a(lib_a-mprec.o)
 .text._mprec_log10
                0x00000000       0x34 c:/icpdas/hmiworks_standard/gcc/bin/../lib/gcc/arm-none-eabi/4.8.3/../../../../arm-none-eabi/lib/armv7-m/libc.a(lib_a-mprec.o)
 .rodata.__mprec_tinytens
                0x00000000       0x28 c:/icpdas/hmiworks_standard/gcc/bin/../lib/gcc/arm-none-eabi/4.8.3/../../../../arm-none-eabi/lib/armv7-m/libc.a(lib_a-mprec.o)
 .text          0x00000000        0x0 c:/icpdas/hmiworks_standard/gcc/bin/../lib/gcc/arm-none-eabi/4.8.3/../../../../arm-none-eabi/lib/armv7-m/libc.a(lib_a-s_fpclassify.o)
 .data          0x00000000        0x0 c:/icpdas/hmiworks_standard/gcc/bin/../lib/gcc/arm-none-eabi/4.8.3/../../../../arm-none-eabi/lib/armv7-m/libc.a(lib_a-s_fpclassify.o)
 .bss           0x00000000        0x0 c:/icpdas/hmiworks_standard/gcc/bin/../lib/gcc/arm-none-eabi/4.8.3/../../../../arm-none-eabi/lib/armv7-m/libc.a(lib_a-s_fpclassify.o)
 .text          0x00000000        0x0 c:/icpdas/hmiworks_standard/gcc/bin/../lib/gcc/arm-none-eabi/4.8.3/../../../../arm-none-eabi/lib/armv7-m/libc.a(lib_a-sf_nan.o)
 .data          0x00000000        0x0 c:/icpdas/hmiworks_standard/gcc/bin/../lib/gcc/arm-none-eabi/4.8.3/../../../../arm-none-eabi/lib/armv7-m/libc.a(lib_a-sf_nan.o)
 .bss           0x00000000        0x0 c:/icpdas/hmiworks_standard/gcc/bin/../lib/gcc/arm-none-eabi/4.8.3/../../../../arm-none-eabi/lib/armv7-m/libc.a(lib_a-sf_nan.o)
 .text          0x00000000        0x0 c:/icpdas/hmiworks_standard/gcc/bin/../lib/gcc/arm-none-eabi/4.8.3/../../../../arm-none-eabi/lib/armv7-m/libc.a(lib_a-strncmp.o)
 .data          0x00000000        0x0 c:/icpdas/hmiworks_standard/gcc/bin/../lib/gcc/arm-none-eabi/4.8.3/../../../../arm-none-eabi/lib/armv7-m/libc.a(lib_a-strncmp.o)
 .bss           0x00000000        0x0 c:/icpdas/hmiworks_standard/gcc/bin/../lib/gcc/arm-none-eabi/4.8.3/../../../../arm-none-eabi/lib/armv7-m/libc.a(lib_a-strncmp.o)
 .text          0x00000000        0x0 c:/icpdas/hmiworks_standard/gcc/bin/../lib/gcc/arm-none-eabi/4.8.3/../../../../arm-none-eabi/lib/armv7-m/libc.a(lib_a-svfiprintf.o)
 .data          0x00000000        0x0 c:/icpdas/hmiworks_standard/gcc/bin/../lib/gcc/arm-none-eabi/4.8.3/../../../../arm-none-eabi/lib/armv7-m/libc.a(lib_a-svfiprintf.o)
 .bss           0x00000000        0x0 c:/icpdas/hmiworks_standard/gcc/bin/../lib/gcc/arm-none-eabi/4.8.3/../../../../arm-none-eabi/lib/armv7-m/libc.a(lib_a-svfiprintf.o)
 .text._svfiprintf_r
                0x00000000      0xb3c c:/icpdas/hmiworks_standard/gcc/bin/../lib/gcc/arm-none-eabi/4.8.3/../../../../arm-none-eabi/lib/armv7-m/libc.a(lib_a-svfiprintf.o)
 .rodata.blanks.6687
                0x00000000       0x10 c:/icpdas/hmiworks_standard/gcc/bin/../lib/gcc/arm-none-eabi/4.8.3/../../../../arm-none-eabi/lib/armv7-m/libc.a(lib_a-svfiprintf.o)
 .rodata.str1.4
                0x00000000       0x30 c:/icpdas/hmiworks_standard/gcc/bin/../lib/gcc/arm-none-eabi/4.8.3/../../../../arm-none-eabi/lib/armv7-m/libc.a(lib_a-svfiprintf.o)
 .rodata.zeroes.6688
                0x00000000       0x10 c:/icpdas/hmiworks_standard/gcc/bin/../lib/gcc/arm-none-eabi/4.8.3/../../../../arm-none-eabi/lib/armv7-m/libc.a(lib_a-svfiprintf.o)
 .text          0x00000000        0x0 c:/icpdas/hmiworks_standard/gcc/bin/../lib/gcc/arm-none-eabi/4.8.3/../../../../arm-none-eabi/lib/armv7-m/libc.a(lib_a-callocr.o)
 .data          0x00000000        0x0 c:/icpdas/hmiworks_standard/gcc/bin/../lib/gcc/arm-none-eabi/4.8.3/../../../../arm-none-eabi/lib/armv7-m/libc.a(lib_a-callocr.o)
 .bss           0x00000000        0x0 c:/icpdas/hmiworks_standard/gcc/bin/../lib/gcc/arm-none-eabi/4.8.3/../../../../arm-none-eabi/lib/armv7-m/libc.a(lib_a-callocr.o)
 .text          0x00000000        0x0 c:/icpdas/hmiworks_standard/gcc/bin/../lib/gcc/arm-none-eabi/4.8.3/../../../../arm-none-eabi/lib/armv7-m/libc.a(lib_a-memmove.o)
 .data          0x00000000        0x0 c:/icpdas/hmiworks_standard/gcc/bin/../lib/gcc/arm-none-eabi/4.8.3/../../../../arm-none-eabi/lib/armv7-m/libc.a(lib_a-memmove.o)
 .bss           0x00000000        0x0 c:/icpdas/hmiworks_standard/gcc/bin/../lib/gcc/arm-none-eabi/4.8.3/../../../../arm-none-eabi/lib/armv7-m/libc.a(lib_a-memmove.o)
 .text          0x00000000        0x0 c:/icpdas/hmiworks_standard/gcc/bin/../lib/gcc/arm-none-eabi/4.8.3/../../../../arm-none-eabi/lib/armv7-m/libc.a(lib_a-reallocr.o)
 .data          0x00000000        0x0 c:/icpdas/hmiworks_standard/gcc/bin/../lib/gcc/arm-none-eabi/4.8.3/../../../../arm-none-eabi/lib/armv7-m/libc.a(lib_a-reallocr.o)
 .bss           0x00000000        0x0 c:/icpdas/hmiworks_standard/gcc/bin/../lib/gcc/arm-none-eabi/4.8.3/../../../../arm-none-eabi/lib/armv7-m/libc.a(lib_a-reallocr.o)
 .data          0x00000000        0x0 c:/icpdas/hmiworks_standard/gcc/bin/../lib/gcc/arm-none-eabi/4.8.3/armv7-m/libgcc.a(_arm_addsubdf3.o)
 .bss           0x00000000        0x0 c:/icpdas/hmiworks_standard/gcc/bin/../lib/gcc/arm-none-eabi/4.8.3/armv7-m/libgcc.a(_arm_addsubdf3.o)
 .data          0x00000000        0x0 c:/icpdas/hmiworks_standard/gcc/bin/../lib/gcc/arm-none-eabi/4.8.3/armv7-m/libgcc.a(_arm_muldivdf3.o)
 .bss           0x00000000        0x0 c:/icpdas/hmiworks_standard/gcc/bin/../lib/gcc/arm-none-eabi/4.8.3/armv7-m/libgcc.a(_arm_muldivdf3.o)
 .data          0x00000000        0x0 c:/icpdas/hmiworks_standard/gcc/bin/../lib/gcc/arm-none-eabi/4.8.3/armv7-m/libgcc.a(_arm_cmpdf2.o)
 .bss           0x00000000        0x0 c:/icpdas/hmiworks_standard/gcc/bin/../lib/gcc/arm-none-eabi/4.8.3/armv7-m/libgcc.a(_arm_cmpdf2.o)
 .data          0x00000000        0x0 c:/icpdas/hmiworks_standard/gcc/bin/../lib/gcc/arm-none-eabi/4.8.3/armv7-m/libgcc.a(_arm_fixdfsi.o)
 .bss           0x00000000        0x0 c:/icpdas/hmiworks_standard/gcc/bin/../lib/gcc/arm-none-eabi/4.8.3/armv7-m/libgcc.a(_arm_fixdfsi.o)
 .data          0x00000000        0x0 c:/icpdas/hmiworks_standard/gcc/bin/../lib/gcc/arm-none-eabi/4.8.3/armv7-m/libgcc.a(_arm_fixunsdfsi.o)
 .bss           0x00000000        0x0 c:/icpdas/hmiworks_standard/gcc/bin/../lib/gcc/arm-none-eabi/4.8.3/armv7-m/libgcc.a(_arm_fixunsdfsi.o)
 .data          0x00000000        0x0 c:/icpdas/hmiworks_standard/gcc/bin/../lib/gcc/arm-none-eabi/4.8.3/armv7-m/libgcc.a(_arm_truncdfsf2.o)
 .bss           0x00000000        0x0 c:/icpdas/hmiworks_standard/gcc/bin/../lib/gcc/arm-none-eabi/4.8.3/armv7-m/libgcc.a(_arm_truncdfsf2.o)
 .data          0x00000000        0x0 c:/icpdas/hmiworks_standard/gcc/bin/../lib/gcc/arm-none-eabi/4.8.3/armv7-m/libgcc.a(_arm_addsubsf3.o)
 .bss           0x00000000        0x0 c:/icpdas/hmiworks_standard/gcc/bin/../lib/gcc/arm-none-eabi/4.8.3/armv7-m/libgcc.a(_arm_addsubsf3.o)
 .data          0x00000000        0x0 c:/icpdas/hmiworks_standard/gcc/bin/../lib/gcc/arm-none-eabi/4.8.3/armv7-m/libgcc.a(_arm_muldivsf3.o)
 .bss           0x00000000        0x0 c:/icpdas/hmiworks_standard/gcc/bin/../lib/gcc/arm-none-eabi/4.8.3/armv7-m/libgcc.a(_arm_muldivsf3.o)
 .data          0x00000000        0x0 c:/icpdas/hmiworks_standard/gcc/bin/../lib/gcc/arm-none-eabi/4.8.3/armv7-m/libgcc.a(_arm_cmpsf2.o)
 .bss           0x00000000        0x0 c:/icpdas/hmiworks_standard/gcc/bin/../lib/gcc/arm-none-eabi/4.8.3/armv7-m/libgcc.a(_arm_cmpsf2.o)
 .data          0x00000000        0x0 c:/icpdas/hmiworks_standard/gcc/bin/../lib/gcc/arm-none-eabi/4.8.3/armv7-m/libgcc.a(_arm_fixsfsi.o)
 .bss           0x00000000        0x0 c:/icpdas/hmiworks_standard/gcc/bin/../lib/gcc/arm-none-eabi/4.8.3/armv7-m/libgcc.a(_arm_fixsfsi.o)
 .data          0x00000000        0x0 c:/icpdas/hmiworks_standard/gcc/bin/../lib/gcc/arm-none-eabi/4.8.3/armv7-m/libgcc.a(_aeabi_uldivmod.o)
 .bss           0x00000000        0x0 c:/icpdas/hmiworks_standard/gcc/bin/../lib/gcc/arm-none-eabi/4.8.3/armv7-m/libgcc.a(_aeabi_uldivmod.o)
 .data          0x00000000        0x0 c:/icpdas/hmiworks_standard/gcc/bin/../lib/gcc/arm-none-eabi/4.8.3/armv7-m/libgcc.a(bpabi.o)
 .bss           0x00000000        0x0 c:/icpdas/hmiworks_standard/gcc/bin/../lib/gcc/arm-none-eabi/4.8.3/armv7-m/libgcc.a(bpabi.o)
 .data          0x00000000        0x0 c:/icpdas/hmiworks_standard/gcc/bin/../lib/gcc/arm-none-eabi/4.8.3/armv7-m/libgcc.a(_dvmd_tls.o)
 .bss           0x00000000        0x0 c:/icpdas/hmiworks_standard/gcc/bin/../lib/gcc/arm-none-eabi/4.8.3/armv7-m/libgcc.a(_dvmd_tls.o)
 .data          0x00000000        0x0 c:/icpdas/hmiworks_standard/gcc/bin/../lib/gcc/arm-none-eabi/4.8.3/armv7-m/libgcc.a(_divdi3.o)
 .bss           0x00000000        0x0 c:/icpdas/hmiworks_standard/gcc/bin/../lib/gcc/arm-none-eabi/4.8.3/armv7-m/libgcc.a(_divdi3.o)
 .ARM.extab     0x00000000        0x0 c:/icpdas/hmiworks_standard/gcc/bin/../lib/gcc/arm-none-eabi/4.8.3/armv7-m/libgcc.a(_divdi3.o)
 .data          0x00000000        0x0 c:/icpdas/hmiworks_standard/gcc/bin/../lib/gcc/arm-none-eabi/4.8.3/armv7-m/libgcc.a(_udivdi3.o)
 .bss           0x00000000        0x0 c:/icpdas/hmiworks_standard/gcc/bin/../lib/gcc/arm-none-eabi/4.8.3/armv7-m/libgcc.a(_udivdi3.o)
 .ARM.extab     0x00000000        0x0 c:/icpdas/hmiworks_standard/gcc/bin/../lib/gcc/arm-none-eabi/4.8.3/armv7-m/libgcc.a(_udivdi3.o)

Memory Configuration

Name             Origin             Length             Attributes
FLASH            0x60000000         0x00800000         xr
SRAM             0x60800000         0x00800000         xrw
*default*        0x00000000         0xffffffff

Linker script and memory map


.text           0x60000000    0x3a7c8
                0x60000000                _text = .
 *(.isr_vector)
 .isr_vector    0x60000000      0x11c c:/ICPDAS/HMIWorks_Standard/lib/VPD-133/startup_gcc.o
                0x60000000                g_pfnVectors
 *(.text*)
 .text.SysTickIntHandler
                0x6000011c        0x4 main.o
                0x6000011c                SysTickIntHandler
 .text.startup.main
                0x60000120       0x84 main.o
                0x60000120                main
 .text.hmi_Ladder_Process
                0x600001a4       0x16 _frame0.o
                0x600001a4                hmi_Ladder_Process
 *fill*         0x600001ba        0x2 
 .text._tpd_tcp_initial
                0x600001bc       0x1c _frame0.o
                0x600001bc                _tpd_tcp_initial
 .text.hmi_TimerTrigger
                0x600001d8       0xb8 _frame0.o
                0x600001d8                hmi_TimerTrigger
 .text.hmi_FreeCurrentFrame
                0x60000290       0x48 _frame0.o
                0x60000290                hmi_FreeCurrentFrame
 .text.hmi_GotoFrame
                0x600002d8       0x78 _frame0.o
                0x600002d8                hmi_GotoFrame
 .text.hmi_IndexOfFrame
                0x60000350       0x28 _frame0.o
                0x60000350                hmi_IndexOfFrame
 .text.hmi_GotoFrameByName
                0x60000378        0xe _frame0.o
                0x60000378                hmi_GotoFrameByName
 .text.hmi_IOScan_Process
                0x60000386        0x6 _frame0.o
                0x60000386                hmi_IOScan_Process
 .text.hmi_frame0
                0x6000038c       0x3c _frame0.o
                0x6000038c                hmi_frame0
 .text.hmi_OnTimer137Execute
                0x600003c8        0xc _demarrage.o
                0x600003c8                hmi_OnTimer137Execute
 .text.renderdemarrage2Vector
                0x600003d4       0x54 _demarrage.o
                0x600003d4                renderdemarrage2Vector
 .text.Ondemarrage2Paint
                0x60000428       0x34 _demarrage.o
                0x60000428                Ondemarrage2Paint
 .text.hmi_InitFrameWidgets1
                0x6000045c       0x44 _demarrage.o
                0x6000045c                hmi_InitFrameWidgets1
 .text.hmi_FreeFrameWidgets1
                0x600004a0       0x20 _demarrage.o
                0x600004a0                hmi_FreeFrameWidgets1
 .text.hmi_demarrage
                0x600004c0       0x1c _demarrage.o
                0x600004c0                hmi_demarrage
 .text.hmi_OnSept16Release
                0x600004dc        0x2 _PavetNum.o
                0x600004dc                hmi_OnSept16Release
 .text.hmi_OnHuit17Release
                0x600004de        0x2 _PavetNum.o
                0x600004de                hmi_OnHuit17Release
 .text.hmi_OnNeuf18Release
                0x600004e0        0x2 _PavetNum.o
                0x600004e0                hmi_OnNeuf18Release
 .text.hmi_OnQuatre19Release
                0x600004e2        0x2 _PavetNum.o
                0x600004e2                hmi_OnQuatre19Release
 .text.hmi_OnCinq20Release
                0x600004e4        0x2 _PavetNum.o
                0x600004e4                hmi_OnCinq20Release
 .text.hmi_OnSix21Release
                0x600004e6        0x2 _PavetNum.o
                0x600004e6                hmi_OnSix21Release
 .text.hmi_OnUn22Release
                0x600004e8        0x2 _PavetNum.o
                0x600004e8                hmi_OnUn22Release
 .text.hmi_OnDeux23Release
                0x600004ea        0x2 _PavetNum.o
                0x600004ea                hmi_OnDeux23Release
 .text.hmi_OnTrois24Release
                0x600004ec        0x2 _PavetNum.o
                0x600004ec                hmi_OnTrois24Release
 .text.hmi_OnZero25Release
                0x600004ee        0x2 _PavetNum.o
                0x600004ee                hmi_OnZero25Release
 .text.hmi_OnPoint27Release
                0x600004f0        0x2 _PavetNum.o
                0x600004f0                hmi_OnPoint27Release
 .text.hmi_OnEntrer26Release
                0x600004f2        0x2 _PavetNum.o
                0x600004f2                hmi_OnEntrer26Release
 .text.hmi_OnSupprime28Release
                0x600004f4        0x2 _PavetNum.o
                0x600004f4                hmi_OnSupprime28Release
 .text.hmi_OnTimer132Execute
                0x600004f6        0x2 _PavetNum.o
                0x600004f6                hmi_OnTimer132Execute
 .text.OnPavetNum14Paint
                0x600004f8       0x28 _PavetNum.o
                0x600004f8                OnPavetNum14Paint
 .text.Zero25OnClick
                0x60000520       0x58 _PavetNum.o
                0x60000520                Zero25OnClick
 .text.hmi_OnZero25Click
                0x60000578        0x4 _PavetNum.o
                0x60000578                hmi_OnZero25Click
 .text.Un22OnClick
                0x6000057c       0x58 _PavetNum.o
                0x6000057c                Un22OnClick
 .text.hmi_OnUn22Click
                0x600005d4        0x4 _PavetNum.o
                0x600005d4                hmi_OnUn22Click
 .text.Deux23OnClick
                0x600005d8       0x58 _PavetNum.o
                0x600005d8                Deux23OnClick
 .text.hmi_OnDeux23Click
                0x60000630        0x4 _PavetNum.o
                0x60000630                hmi_OnDeux23Click
 .text.Trois24OnClick
                0x60000634       0x58 _PavetNum.o
                0x60000634                Trois24OnClick
 .text.hmi_OnTrois24Click
                0x6000068c        0x4 _PavetNum.o
                0x6000068c                hmi_OnTrois24Click
 .text.Quatre19OnClick
                0x60000690       0x58 _PavetNum.o
                0x60000690                Quatre19OnClick
 .text.hmi_OnQuatre19Click
                0x600006e8        0x4 _PavetNum.o
                0x600006e8                hmi_OnQuatre19Click
 .text.Cinq20OnClick
                0x600006ec       0x58 _PavetNum.o
                0x600006ec                Cinq20OnClick
 .text.hmi_OnCinq20Click
                0x60000744        0x4 _PavetNum.o
                0x60000744                hmi_OnCinq20Click
 .text.Six21OnClick
                0x60000748       0x58 _PavetNum.o
                0x60000748                Six21OnClick
 .text.hmi_OnSix21Click
                0x600007a0        0x4 _PavetNum.o
                0x600007a0                hmi_OnSix21Click
 .text.Sept16OnClick
                0x600007a4       0x58 _PavetNum.o
                0x600007a4                Sept16OnClick
 .text.hmi_OnSept16Click
                0x600007fc        0x4 _PavetNum.o
                0x600007fc                hmi_OnSept16Click
 .text.Huit17OnClick
                0x60000800       0x58 _PavetNum.o
                0x60000800                Huit17OnClick
 .text.hmi_OnHuit17Click
                0x60000858        0x4 _PavetNum.o
                0x60000858                hmi_OnHuit17Click
 .text.Neuf18OnClick
                0x6000085c       0x58 _PavetNum.o
                0x6000085c                Neuf18OnClick
 .text.hmi_OnNeuf18Click
                0x600008b4        0x4 _PavetNum.o
                0x600008b4                hmi_OnNeuf18Click
 .text.Supprime28OnClick
                0x600008b8       0x28 _PavetNum.o
                0x600008b8                Supprime28OnClick
 .text.hmi_OnSupprime28Click
                0x600008e0        0x4 _PavetNum.o
                0x600008e0                hmi_OnSupprime28Click
 .text.Entrer26OnClick
                0x600008e4      0x104 _PavetNum.o
                0x600008e4                Entrer26OnClick
 .text.hmi_OnEntrer26Click
                0x600009e8        0x4 _PavetNum.o
                0x600009e8                hmi_OnEntrer26Click
 .text.PavetNum14OnCreate
                0x600009ec       0x44 _PavetNum.o
                0x600009ec                PavetNum14OnCreate
 .text.PavetNum14OnDestroy
                0x60000a30       0x28 _PavetNum.o
                0x60000a30                PavetNum14OnDestroy
 .text.Point27OnClick
                0x60000a58       0x58 _PavetNum.o
                0x60000a58                Point27OnClick
 .text.hmi_OnPoint27Click
                0x60000ab0        0x4 _PavetNum.o
                0x60000ab0                hmi_OnPoint27Click
 .text.hmi_InitFrameWidgets2
                0x60000ab4       0xf0 _PavetNum.o
                0x60000ab4                hmi_InitFrameWidgets2
 .text.hmi_FreeFrameWidgets2
                0x60000ba4       0xb0 _PavetNum.o
                0x60000ba4                hmi_FreeFrameWidgets2
 .text.hmi_PavetNum
                0x60000c54       0x1c _PavetNum.o
                0x60000c54                hmi_PavetNum
 .text.hmi_OnOK37Release
                0x60000c70        0x2 _ConfigModule.o
                0x60000c70                hmi_OnOK37Release
 .text.hmi_OnAdresse41Release
                0x60000c72        0x2 _ConfigModule.o
                0x60000c72                hmi_OnAdresse41Release
 .text.hmi_OnTimer140Execute
                0x60000c74        0x2 _ConfigModule.o
                0x60000c74                hmi_OnTimer140Execute
 .text.hmi_OnModule6Release
                0x60000c76        0x2 _ConfigModule.o
                0x60000c76                hmi_OnModule6Release
 .text.hmi_OnTextPushButton46Release
                0x60000c78        0x2 _ConfigModule.o
                0x60000c78                hmi_OnTextPushButton46Release
 .text.hmi_OnTextPushButton46Click
                0x60000c7a        0x2 _ConfigModule.o
                0x60000c7a                hmi_OnTextPushButton46Click
 .text.update   0x60000c7c       0xa8 _ConfigModule.o
                0x60000c7c                update
 .text.Impulsion40OnChange
                0x60000d24       0xe0 _ConfigModule.o
                0x60000d24                Impulsion40OnChange
 .text.hmi_OnImpulsion40CheckChange
                0x60000e04        0x4 _ConfigModule.o
                0x60000e04                hmi_OnImpulsion40CheckChange
 .text.QuatreVingtMA38OnChange
                0x60000e08       0xe0 _ConfigModule.o
                0x60000e08                QuatreVingtMA38OnChange
 .text.hmi_OnQuatreVingtMA38CheckChange
                0x60000ee8        0x4 _ConfigModule.o
                0x60000ee8                hmi_OnQuatreVingtMA38CheckChange
 .text.ZeroDixVolt39OnChange
                0x60000eec       0xe0 _ConfigModule.o
                0x60000eec                ZeroDixVolt39OnChange
 .text.hmi_OnZeroDixVolt39CheckChange
                0x60000fcc        0x4 _ConfigModule.o
                0x60000fcc                hmi_OnZeroDixVolt39CheckChange
 .text.OK37OnClick
                0x60000fd0       0x70 _ConfigModule.o
                0x60000fd0                OK37OnClick
 .text.hmi_OnOK37Click
                0x60001040        0x4 _ConfigModule.o
                0x60001040                hmi_OnOK37Click
 .text.Adresse41OnClick
                0x60001044       0x30 _ConfigModule.o
                0x60001044                Adresse41OnClick
 .text.hmi_OnAdresse41Click
                0x60001074        0x4 _ConfigModule.o
                0x60001074                hmi_OnAdresse41Click
 .text.Module6OnClick
                0x60001078       0x30 _ConfigModule.o
                0x60001078                Module6OnClick
 .text.hmi_OnModule6Click
                0x600010a8        0x4 _ConfigModule.o
                0x600010a8                hmi_OnModule6Click
 .text.ConfigModule29OnShow
                0x600010ac      0x180 _ConfigModule.o
                0x600010ac                ConfigModule29OnShow
 .text.renderConfigModule29Vector
                0x6000122c       0xfc _ConfigModule.o
                0x6000122c                renderConfigModule29Vector
 .text.OnConfigModule29Paint
                0x60001328       0x34 _ConfigModule.o
                0x60001328                OnConfigModule29Paint
 .text.hmi_InitFrameWidgets3
                0x6000135c       0x9c _ConfigModule.o
                0x6000135c                hmi_InitFrameWidgets3
 .text.hmi_FreeFrameWidgets3
                0x600013f8       0x64 _ConfigModule.o
                0x600013f8                hmi_FreeFrameWidgets3
 .text.hmi_ConfigModule
                0x6000145c       0x1c _ConfigModule.o
                0x6000145c                hmi_ConfigModule
 .text.hmi_OnZeroCapteur12Release
                0x60001478        0x2 _ConfigCapteur.o
                0x60001478                hmi_OnZeroCapteur12Release
 .text.hmi_OnMaxCapteur13Release
                0x6000147a        0x2 _ConfigCapteur.o
                0x6000147a                hmi_OnMaxCapteur13Release
 .text.hmi_OnVoie36Release
                0x6000147c        0x2 _ConfigCapteur.o
                0x6000147c                hmi_OnVoie36Release
 .text.hmi_OnEtalonnage138Release
                0x6000147e        0x2 _ConfigCapteur.o
                0x6000147e                hmi_OnEtalonnage138Release
 .text.hmi_OnTextPushButton55Release
                0x60001480        0x2 _ConfigCapteur.o
                0x60001480                hmi_OnTextPushButton55Release
 .text.hmi_OnUnite35Release
                0x60001482        0x2 _ConfigCapteur.o
                0x60001482                hmi_OnUnite35Release
 .text.hmi_OnTextPushButton55Click
                0x60001484        0xc _ConfigCapteur.o
                0x60001484                hmi_OnTextPushButton55Click
 .text.hmi_OnEtalonnage138Click
                0x60001490        0xc _ConfigCapteur.o
                0x60001490                hmi_OnEtalonnage138Click
 .text.ZeroCapteur12OnClick
                0x6000149c       0x30 _ConfigCapteur.o
                0x6000149c                ZeroCapteur12OnClick
 .text.hmi_OnZeroCapteur12Click
                0x600014cc        0x4 _ConfigCapteur.o
                0x600014cc                hmi_OnZeroCapteur12Click
 .text.MaxCapteur13OnClick
                0x600014d0       0x30 _ConfigCapteur.o
                0x600014d0                MaxCapteur13OnClick
 .text.hmi_OnMaxCapteur13Click
                0x60001500        0x4 _ConfigCapteur.o
                0x60001500                hmi_OnMaxCapteur13Click
 .text.Voie36OnClick
                0x60001504       0x30 _ConfigCapteur.o
                0x60001504                Voie36OnClick
 .text.hmi_OnVoie36Click
                0x60001534        0x4 _ConfigCapteur.o
                0x60001534                hmi_OnVoie36Click
 .text.Unite35OnClick
                0x60001538       0x30 _ConfigCapteur.o
                0x60001538                Unite35OnClick
 .text.hmi_OnUnite35Click
                0x60001568        0x4 _ConfigCapteur.o
                0x60001568                hmi_OnUnite35Click
 .text.ConfigCapteur7OnShow
                0x6000156c      0x1e0 _ConfigCapteur.o
                0x6000156c                ConfigCapteur7OnShow
 .text.renderConfigCapteur7Vector
                0x6000174c      0x14c _ConfigCapteur.o
                0x6000174c                renderConfigCapteur7Vector
 .text.OnConfigCapteur7Paint
                0x60001898       0x30 _ConfigCapteur.o
                0x60001898                OnConfigCapteur7Paint
 .text.hmi_InitFrameWidgets4
                0x600018c8       0x84 _ConfigCapteur.o
                0x600018c8                hmi_InitFrameWidgets4
 .text.hmi_FreeFrameWidgets4
                0x6000194c       0x50 _ConfigCapteur.o
                0x6000194c                hmi_FreeFrameWidgets4
 .text.hmi_ConfigCapteur
                0x6000199c       0x1c _ConfigCapteur.o
                0x6000199c                hmi_ConfigCapteur
 .text.hmi_OnCoefEtalonnage63Release
                0x600019b8        0x2 _Etalonnage.o
                0x600019b8                hmi_OnCoefEtalonnage63Release
 .text.hmi_OnTextPushButton136Release
                0x600019ba        0x2 _Etalonnage.o
                0x600019ba                hmi_OnTextPushButton136Release
 .text.hmi_OnTextPushButton108Release
                0x600019bc        0x2 _Etalonnage.o
                0x600019bc                hmi_OnTextPushButton108Release
 .text.hmi_OnTextPushButton163Release
                0x600019be        0x2 _Etalonnage.o
                0x600019be                hmi_OnTextPushButton163Release
 .text.hmi_OnTextPushButton163Click
                0x600019c0        0x2 _Etalonnage.o
                0x600019c0                hmi_OnTextPushButton163Click
 *fill*         0x600019c2        0x2 
 .text.hmi_OnTextPushButton136Click
                0x600019c4        0xc _Etalonnage.o
                0x600019c4                hmi_OnTextPushButton136Click
 .text.hmi_OnTextPushButton108Click
                0x600019d0        0xc _Etalonnage.o
                0x600019d0                hmi_OnTextPushButton108Click
 .text.CoefEtalonnage63OnClick
                0x600019dc       0x30 _Etalonnage.o
                0x600019dc                CoefEtalonnage63OnClick
 .text.hmi_OnCoefEtalonnage63Click
                0x60001a0c        0x4 _Etalonnage.o
                0x60001a0c                hmi_OnCoefEtalonnage63Click
 .text.Etalonnage134OnShow
                0x60001a10       0x90 _Etalonnage.o
                0x60001a10                Etalonnage134OnShow
 .text.renderEtalonnage134Vector
                0x60001aa0       0x90 _Etalonnage.o
                0x60001aa0                renderEtalonnage134Vector
 .text.OnEtalonnage134Paint
                0x60001b30       0x30 _Etalonnage.o
                0x60001b30                OnEtalonnage134Paint
 .text.hmi_InitFrameWidgets5
                0x60001b60       0x78 _Etalonnage.o
                0x60001b60                hmi_InitFrameWidgets5
 .text.hmi_FreeFrameWidgets5
                0x60001bd8       0x48 _Etalonnage.o
                0x60001bd8                hmi_FreeFrameWidgets5
 .text.hmi_Etalonnage
                0x60001c20       0x1c _Etalonnage.o
                0x60001c20                hmi_Etalonnage
 .text.hmi_OnTextPushButton71Release
                0x60001c3c        0x2 _Seuillage.o
                0x60001c3c                hmi_OnTextPushButton71Release
 .text.hmi_OnTimer52Execute
                0x60001c3e        0x2 _Seuillage.o
                0x60001c3e                hmi_OnTimer52Execute
 .text.hmi_OnTextPushButton50Release
                0x60001c40        0x2 _Seuillage.o
                0x60001c40                hmi_OnTextPushButton50Release
 .text.hmi_OnTextPushButton50Click
                0x60001c42        0x2 _Seuillage.o
                0x60001c42                hmi_OnTextPushButton50Click
 .text.hmi_OnS1Couleur77Release
                0x60001c44        0x2 _Seuillage.o
                0x60001c44                hmi_OnS1Couleur77Release
 .text.hmi_OnS2Valeur79Release
                0x60001c46        0x2 _Seuillage.o
                0x60001c46                hmi_OnS2Valeur79Release
 .text.hmi_OnS2Couleur82Release
                0x60001c48        0x2 _Seuillage.o
                0x60001c48                hmi_OnS2Couleur82Release
 .text.hmi_OnS3Valeur84Release
                0x60001c4a        0x2 _Seuillage.o
                0x60001c4a                hmi_OnS3Valeur84Release
 .text.hmi_OnS3Couleur87Release
                0x60001c4c        0x2 _Seuillage.o
                0x60001c4c                hmi_OnS3Couleur87Release
 .text.hmi_OnS4Valeur89Release
                0x60001c4e        0x2 _Seuillage.o
                0x60001c4e                hmi_OnS4Valeur89Release
 .text.hmi_OnS4Couleur92Release
                0x60001c50        0x2 _Seuillage.o
                0x60001c50                hmi_OnS4Couleur92Release
 .text.hmi_OnparamAvances94Release
                0x60001c52        0x2 _Seuillage.o
                0x60001c52                hmi_OnparamAvances94Release
 .text.hmi_OnS1Valeur74Release
                0x60001c54        0x2 _Seuillage.o
                0x60001c54                hmi_OnS1Valeur74Release
 *fill*         0x60001c56        0x2 
 .text.hmi_OnTextPushButton71Click
                0x60001c58        0xc _Seuillage.o
                0x60001c58                hmi_OnTextPushButton71Click
 .text.hmi_OnparamAvances94Click
                0x60001c64        0xc _Seuillage.o
                0x60001c64                hmi_OnparamAvances94Click
 .text.majCouleur
                0x60001c70       0xac _Seuillage.o
                0x60001c70                majCouleur
 .text.S1_Y_N78OnChange
                0x60001d1c       0xb0 _Seuillage.o
                0x60001d1c                S1_Y_N78OnChange
 .text.hmi_OnS1_Y_N78CheckChange
                0x60001dcc        0x4 _Seuillage.o
                0x60001dcc                hmi_OnS1_Y_N78CheckChange
 .text.S2_Y_N83OnChange
                0x60001dd0       0xb0 _Seuillage.o
                0x60001dd0                S2_Y_N83OnChange
 .text.hmi_OnS2_Y_N83CheckChange
                0x60001e80        0x4 _Seuillage.o
                0x60001e80                hmi_OnS2_Y_N83CheckChange
 .text.S3_Y_N88OnChange
                0x60001e84       0xb0 _Seuillage.o
                0x60001e84                S3_Y_N88OnChange
 .text.hmi_OnS3_Y_N88CheckChange
                0x60001f34        0x4 _Seuillage.o
                0x60001f34                hmi_OnS3_Y_N88CheckChange
 .text.S4_Y_N93OnChange
                0x60001f38       0xb0 _Seuillage.o
                0x60001f38                S4_Y_N93OnChange
 .text.hmi_OnS4_Y_N93CheckChange
                0x60001fe8        0x4 _Seuillage.o
                0x60001fe8                hmi_OnS4_Y_N93CheckChange
 .text.S1Couleur77OnClick
                0x60001fec      0x110 _Seuillage.o
                0x60001fec                S1Couleur77OnClick
 .text.hmi_OnS1Couleur77Click
                0x600020fc        0x4 _Seuillage.o
                0x600020fc                hmi_OnS1Couleur77Click
 .text.S2Couleur82OnClick
                0x60002100      0x110 _Seuillage.o
                0x60002100                S2Couleur82OnClick
 .text.hmi_OnS2Couleur82Click
                0x60002210        0x4 _Seuillage.o
                0x60002210                hmi_OnS2Couleur82Click
 .text.S3Couleur87OnClick
                0x60002214      0x110 _Seuillage.o
                0x60002214                S3Couleur87OnClick
 .text.hmi_OnS3Couleur87Click
                0x60002324        0x4 _Seuillage.o
                0x60002324                hmi_OnS3Couleur87Click
 .text.S4Couleur92OnClick
                0x60002328      0x110 _Seuillage.o
                0x60002328                S4Couleur92OnClick
 .text.hmi_OnS4Couleur92Click
                0x60002438        0x4 _Seuillage.o
                0x60002438                hmi_OnS4Couleur92Click
 .text.S1Valeur74OnClick
                0x6000243c       0x30 _Seuillage.o
                0x6000243c                S1Valeur74OnClick
 .text.hmi_OnS1Valeur74Click
                0x6000246c        0x4 _Seuillage.o
                0x6000246c                hmi_OnS1Valeur74Click
 .text.S2Valeur79OnClick
                0x60002470       0x30 _Seuillage.o
                0x60002470                S2Valeur79OnClick
 .text.hmi_OnS2Valeur79Click
                0x600024a0        0x4 _Seuillage.o
                0x600024a0                hmi_OnS2Valeur79Click
 .text.S3Valeur84OnClick
                0x600024a4       0x30 _Seuillage.o
                0x600024a4                S3Valeur84OnClick
 .text.hmi_OnS3Valeur84Click
                0x600024d4        0x4 _Seuillage.o
                0x600024d4                hmi_OnS3Valeur84Click
 .text.S4Valeur89OnClick
                0x600024d8       0x30 _Seuillage.o
                0x600024d8                S4Valeur89OnClick
 .text.hmi_OnS4Valeur89Click
                0x60002508        0x4 _Seuillage.o
                0x60002508                hmi_OnS4Valeur89Click
 .text.logique58OnChange
                0x6000250c       0x50 _Seuillage.o
                0x6000250c                logique58OnChange
 .text.Seuillage45OnShow
                0x6000255c      0x2fc _Seuillage.o
                0x6000255c                Seuillage45OnShow
 .text.hmi_Onlogique58CheckChange
                0x60002858        0x4 _Seuillage.o
                0x60002858                hmi_Onlogique58CheckChange
 .text.renderSeuillage45Vector
                0x6000285c      0x194 _Seuillage.o
                0x6000285c                renderSeuillage45Vector
 .text.OnSeuillage45Paint
                0x600029f0       0x30 _Seuillage.o
                0x600029f0                OnSeuillage45Paint
 .text.hmi_InitFrameWidgets6
                0x60002a20      0x138 _Seuillage.o
                0x60002a20                hmi_InitFrameWidgets6
 .text.hmi_FreeFrameWidgets6
                0x60002b58       0xe8 _Seuillage.o
                0x60002b58                hmi_FreeFrameWidgets6
 .text.hmi_Seuillage
                0x60002c40       0x1c _Seuillage.o
                0x60002c40                hmi_Seuillage
 .text.hmi_Onhysteresis104Release
                0x60002c5c        0x2 _SeuilUn.o
                0x60002c5c                hmi_Onhysteresis104Release
 .text.hmi_OnRetard105Release
                0x60002c5e        0x2 _SeuilUn.o
                0x60002c5e                hmi_OnRetard105Release
 .text.hmi_OnVoie106Release
                0x60002c60        0x2 _SeuilUn.o
                0x60002c60                hmi_OnVoie106Release
 .text.hmi_OnNext107Release
                0x60002c62        0x2 _SeuilUn.o
                0x60002c62                hmi_OnNext107Release
 .text.hmi_Onadresse103Release
                0x60002c64        0x2 _SeuilUn.o
                0x60002c64                hmi_Onadresse103Release
 .text.hmi_OnTextPushButton153Release
                0x60002c66        0x2 _SeuilUn.o
                0x60002c66                hmi_OnTextPushButton153Release
 .text.hmi_OnPrev164Release
                0x60002c68        0x2 _SeuilUn.o
                0x60002c68                hmi_OnPrev164Release
 .text.hmi_OnValider111Release
                0x60002c6a        0x2 _SeuilUn.o
                0x60002c6a                hmi_OnValider111Release
 .text.hmi_OnTextPushButton153Click
                0x60002c6c        0xc _SeuilUn.o
                0x60002c6c                hmi_OnTextPushButton153Click
 .text.hmi_OnValider111Click
                0x60002c78        0xc _SeuilUn.o
                0x60002c78                hmi_OnValider111Click
 .text.hysteresis104OnClick
                0x60002c84       0x64 _SeuilUn.o
                0x60002c84                hysteresis104OnClick
 .text.hmi_Onhysteresis104Click
                0x60002ce8        0x4 _SeuilUn.o
                0x60002ce8                hmi_Onhysteresis104Click
 .text.Retard105OnClick
                0x60002cec       0x64 _SeuilUn.o
                0x60002cec                Retard105OnClick
 .text.hmi_OnRetard105Click
                0x60002d50        0x4 _SeuilUn.o
                0x60002d50                hmi_OnRetard105Click
 .text.NO102OnChange
                0x60002d54       0x98 _SeuilUn.o
                0x60002d54                NO102OnChange
 .text.hmi_OnNO102CheckChange
                0x60002dec        0x4 _SeuilUn.o
                0x60002dec                hmi_OnNO102CheckChange
 .text.Voie106OnClick
                0x60002df0       0x64 _SeuilUn.o
                0x60002df0                Voie106OnClick
 .text.hmi_OnVoie106Click
                0x60002e54        0x4 _SeuilUn.o
                0x60002e54                hmi_OnVoie106Click
 .text.adresse103OnClick
                0x60002e58       0x64 _SeuilUn.o
                0x60002e58                adresse103OnClick
 .text.hmi_Onadresse103Click
                0x60002ebc        0x4 _SeuilUn.o
                0x60002ebc                hmi_Onadresse103Click
 .text.SeuilUn95OnShow
                0x60002ec0      0x31c _SeuilUn.o
                0x60002ec0                SeuilUn95OnShow
 .text.Prev164OnClick
                0x600031dc       0x8c _SeuilUn.o
                0x600031dc                Prev164OnClick
 .text.hmi_OnPrev164Click
                0x60003268        0x4 _SeuilUn.o
                0x60003268                hmi_OnPrev164Click
 .text.Next107OnClick
                0x6000326c       0x8c _SeuilUn.o
                0x6000326c                Next107OnClick
 .text.hmi_OnNext107Click
                0x600032f8        0x4 _SeuilUn.o
                0x600032f8                hmi_OnNext107Click
 .text.SeuilUn95OnCreate
                0x600032fc        0xc _SeuilUn.o
                0x600032fc                SeuilUn95OnCreate
 .text.Timer110OnExecute
                0x60003308       0x40 _SeuilUn.o
                0x60003308                Timer110OnExecute
 .text.hmi_OnTimer110Execute
                0x60003348        0x4 _SeuilUn.o
                0x60003348                hmi_OnTimer110Execute
 .text.renderSeuilUn95Vector
                0x6000334c      0x184 _SeuilUn.o
                0x6000334c                renderSeuilUn95Vector
 .text.OnSeuilUn95Paint
                0x600034d0       0x30 _SeuilUn.o
                0x600034d0                OnSeuilUn95Paint
 .text.hmi_InitFrameWidgets7
                0x60003500       0xc4 _SeuilUn.o
                0x60003500                hmi_InitFrameWidgets7
 .text.hmi_FreeFrameWidgets7
                0x600035c4       0x84 _SeuilUn.o
                0x600035c4                hmi_FreeFrameWidgets7
 .text.hmi_SeuilUn
                0x60003648       0x1c _SeuilUn.o
                0x60003648                hmi_SeuilUn
 .text.hmi_OnConfigM113Release
                0x60003664        0x2 _Affichage.o
                0x60003664                hmi_OnConfigM113Release
 .text.hmi_OnConfigE115Release
                0x60003666        0x2 _Affichage.o
                0x60003666                hmi_OnConfigE115Release
 .text.hmi_OnConfigS116Release
                0x60003668        0x2 _Affichage.o
                0x60003668                hmi_OnConfigS116Release
 .text.hmi_OnConfigC117Release
                0x6000366a        0x2 _Affichage.o
                0x6000366a                hmi_OnConfigC117Release
 .text.hmi_OnConfigM113Click
                0x6000366c        0xc _Affichage.o
                0x6000366c                hmi_OnConfigM113Click
 .text.hmi_OnConfigC117Click
                0x60003678        0xc _Affichage.o
                0x60003678                hmi_OnConfigC117Click
 .text.hmi_OnConfigS116Click
                0x60003684        0xc _Affichage.o
                0x60003684                hmi_OnConfigS116Click
 .text.hmi_OnConfigE115Click
                0x60003690        0xc _Affichage.o
                0x60003690                hmi_OnConfigE115Click
 .text.OnAffichage112Paint
                0x6000369c       0x24 _Affichage.o
                0x6000369c                OnAffichage112Paint
 .text.hmi_InitFrameWidgets8
                0x600036c0       0x80 _Affichage.o
                0x600036c0                hmi_InitFrameWidgets8
 .text.hmi_FreeFrameWidgets8
                0x60003740       0x50 _Affichage.o
                0x60003740                hmi_FreeFrameWidgets8
 .text.hmi_Affichage
                0x60003790       0x1c _Affichage.o
                0x60003790                hmi_Affichage
 .text.hmi_OnTextPushButton224Release
                0x600037ac        0x2 _Clavier.o
                0x600037ac                hmi_OnTextPushButton224Release
 .text.hmi_OnTextPushButton225Release
                0x600037ae        0x2 _Clavier.o
                0x600037ae                hmi_OnTextPushButton225Release
 .text.hmi_OnTextPushButton226Release
                0x600037b0        0x2 _Clavier.o
                0x600037b0                hmi_OnTextPushButton226Release
 .text.hmi_OnTextPushButton227Release
                0x600037b2        0x2 _Clavier.o
                0x600037b2                hmi_OnTextPushButton227Release
 .text.hmi_OnTextPushButton228Release
                0x600037b4        0x2 _Clavier.o
                0x600037b4                hmi_OnTextPushButton228Release
 .text.hmi_OnTextPushButton229Release
                0x600037b6        0x2 _Clavier.o
                0x600037b6                hmi_OnTextPushButton229Release
 .text.hmi_OnTextPushButton230Release
                0x600037b8        0x2 _Clavier.o
                0x600037b8                hmi_OnTextPushButton230Release
 .text.hmi_OnTextPushButton231Release
                0x600037ba        0x2 _Clavier.o
                0x600037ba                hmi_OnTextPushButton231Release
 .text.hmi_OnTextPushButton232Release
                0x600037bc        0x2 _Clavier.o
                0x600037bc                hmi_OnTextPushButton232Release
 .text.hmi_OnTextPushButton233Release
                0x600037be        0x2 _Clavier.o
                0x600037be                hmi_OnTextPushButton233Release
 .text.hmi_OnTextPushButton234Release
                0x600037c0        0x2 _Clavier.o
                0x600037c0                hmi_OnTextPushButton234Release
 .text.hmi_OnTextPushButton235Release
                0x600037c2        0x2 _Clavier.o
                0x600037c2                hmi_OnTextPushButton235Release
 .text.hmi_OnTextPushButton236Release
                0x600037c4        0x2 _Clavier.o
                0x600037c4                hmi_OnTextPushButton236Release
 .text.hmi_OnTextPushButton237Release
                0x600037c6        0x2 _Clavier.o
                0x600037c6                hmi_OnTextPushButton237Release
 .text.hmi_OnTextPushButton238Release
                0x600037c8        0x2 _Clavier.o
                0x600037c8                hmi_OnTextPushButton238Release
 .text.hmi_OnTextPushButton239Release
                0x600037ca        0x2 _Clavier.o
                0x600037ca                hmi_OnTextPushButton239Release
 .text.hmi_OnTextPushButton240Release
                0x600037cc        0x2 _Clavier.o
                0x600037cc                hmi_OnTextPushButton240Release
 .text.hmi_OnTextPushButton241Release
                0x600037ce        0x2 _Clavier.o
                0x600037ce                hmi_OnTextPushButton241Release
 .text.hmi_OnTextPushButton242Release
                0x600037d0        0x2 _Clavier.o
                0x600037d0                hmi_OnTextPushButton242Release
 .text.hmi_OnTextPushButton243Release
                0x600037d2        0x2 _Clavier.o
                0x600037d2                hmi_OnTextPushButton243Release
 .text.hmi_OnTextPushButton244Release
                0x600037d4        0x2 _Clavier.o
                0x600037d4                hmi_OnTextPushButton244Release
 .text.hmi_OnTextPushButton245Release
                0x600037d6        0x2 _Clavier.o
                0x600037d6                hmi_OnTextPushButton245Release
 .text.hmi_OnTextPushButton246Release
                0x600037d8        0x2 _Clavier.o
                0x600037d8                hmi_OnTextPushButton246Release
 .text.hmi_OnTextPushButton247Release
                0x600037da        0x2 _Clavier.o
                0x600037da                hmi_OnTextPushButton247Release
 .text.hmi_OnTextPushButton248Release
                0x600037dc        0x2 _Clavier.o
                0x600037dc                hmi_OnTextPushButton248Release
 .text.hmi_OnTextPushButton249Release
                0x600037de        0x2 _Clavier.o
                0x600037de                hmi_OnTextPushButton249Release
 .text.hmi_OnUn250Release
                0x600037e0        0x2 _Clavier.o
                0x600037e0                hmi_OnUn250Release
 .text.hmi_OnTextPushButton251Release
                0x600037e2        0x2 _Clavier.o
                0x600037e2                hmi_OnTextPushButton251Release
 .text.hmi_OnTextPushButton252Release
                0x600037e4        0x2 _Clavier.o
                0x600037e4                hmi_OnTextPushButton252Release
 .text.hmi_OnTextPushButton253Release
                0x600037e6        0x2 _Clavier.o
                0x600037e6                hmi_OnTextPushButton253Release
 .text.hmi_OnTextPushButton254Release
                0x600037e8        0x2 _Clavier.o
                0x600037e8                hmi_OnTextPushButton254Release
 .text.hmi_OnTextPushButton255Release
                0x600037ea        0x2 _Clavier.o
                0x600037ea                hmi_OnTextPushButton255Release
 .text.hmi_OnTextPushButton282Release
                0x600037ec        0x2 _Clavier.o
                0x600037ec                hmi_OnTextPushButton282Release
 .text.hmi_OnTextPushButton256Release
                0x600037ee        0x2 _Clavier.o
                0x600037ee                hmi_OnTextPushButton256Release
 .text.hmi_OnTextPushButton257Release
                0x600037f0        0x2 _Clavier.o
                0x600037f0                hmi_OnTextPushButton257Release
 .text.hmi_OnTextPushButton258Release
                0x600037f2        0x2 _Clavier.o
                0x600037f2                hmi_OnTextPushButton258Release
 .text.hmi_OnTextPushButton261Release
                0x600037f4        0x2 _Clavier.o
                0x600037f4                hmi_OnTextPushButton261Release
 .text.hmi_OnTextPushButton262Release
                0x600037f6        0x2 _Clavier.o
                0x600037f6                hmi_OnTextPushButton262Release
 .text.hmi_OnTextPushButton265Release
                0x600037f8        0x2 _Clavier.o
                0x600037f8                hmi_OnTextPushButton265Release
 .text.hmi_OnTimer292Execute
                0x600037fa        0x2 _Clavier.o
                0x600037fa                hmi_OnTimer292Execute
 .text.InverserStr
                0x600037fc       0x20 _Clavier.o
                0x600037fc                InverserStr
 .text.TextPushButton250OnClick
                0x6000381c       0x58 _Clavier.o
                0x6000381c                TextPushButton250OnClick
 .text.hmi_OnUn250Click
                0x60003874        0x4 _Clavier.o
                0x60003874                hmi_OnUn250Click
 .text.TextPushButton282OnClick
                0x60003878      0x158 _Clavier.o
                0x60003878                TextPushButton282OnClick
 .text.hmi_OnTextPushButton282Click
                0x600039d0        0x4 _Clavier.o
                0x600039d0                hmi_OnTextPushButton282Click
 .text.TextPushButton224OnClick
                0x600039d4       0x58 _Clavier.o
                0x600039d4                TextPushButton224OnClick
 .text.hmi_OnTextPushButton224Click
                0x60003a2c        0x4 _Clavier.o
                0x60003a2c                hmi_OnTextPushButton224Click
 .text.TextPushButton225OnClick
                0x60003a30       0x58 _Clavier.o
                0x60003a30                TextPushButton225OnClick
 .text.hmi_OnTextPushButton225Click
                0x60003a88        0x4 _Clavier.o
                0x60003a88                hmi_OnTextPushButton225Click
 .text.TextPushButton226OnClick
                0x60003a8c       0x58 _Clavier.o
                0x60003a8c                TextPushButton226OnClick
 .text.hmi_OnTextPushButton226Click
                0x60003ae4        0x4 _Clavier.o
                0x60003ae4                hmi_OnTextPushButton226Click
 .text.TextPushButton227OnClick
                0x60003ae8       0x58 _Clavier.o
                0x60003ae8                TextPushButton227OnClick
 .text.hmi_OnTextPushButton227Click
                0x60003b40        0x4 _Clavier.o
                0x60003b40                hmi_OnTextPushButton227Click
 .text.TextPushButton228OnClick
                0x60003b44       0x58 _Clavier.o
                0x60003b44                TextPushButton228OnClick
 .text.hmi_OnTextPushButton228Click
                0x60003b9c        0x4 _Clavier.o
                0x60003b9c                hmi_OnTextPushButton228Click
 .text.TextPushButton229OnClick
                0x60003ba0       0x58 _Clavier.o
                0x60003ba0                TextPushButton229OnClick
 .text.hmi_OnTextPushButton229Click
                0x60003bf8        0x4 _Clavier.o
                0x60003bf8                hmi_OnTextPushButton229Click
 .text.TextPushButton230OnClick
                0x60003bfc       0x58 _Clavier.o
                0x60003bfc                TextPushButton230OnClick
 .text.hmi_OnTextPushButton230Click
                0x60003c54        0x4 _Clavier.o
                0x60003c54                hmi_OnTextPushButton230Click
 .text.TextPushButton231OnClick
                0x60003c58       0x58 _Clavier.o
                0x60003c58                TextPushButton231OnClick
 .text.hmi_OnTextPushButton231Click
                0x60003cb0        0x4 _Clavier.o
                0x60003cb0                hmi_OnTextPushButton231Click
 .text.TextPushButton232OnClick
                0x60003cb4       0x58 _Clavier.o
                0x60003cb4                TextPushButton232OnClick
 .text.hmi_OnTextPushButton232Click
                0x60003d0c        0x4 _Clavier.o
                0x60003d0c                hmi_OnTextPushButton232Click
 .text.TextPushButton233OnClick
                0x60003d10       0x58 _Clavier.o
                0x60003d10                TextPushButton233OnClick
 .text.hmi_OnTextPushButton233Click
                0x60003d68        0x4 _Clavier.o
                0x60003d68                hmi_OnTextPushButton233Click
 .text.TextPushButton234OnClick
                0x60003d6c       0x58 _Clavier.o
                0x60003d6c                TextPushButton234OnClick
 .text.hmi_OnTextPushButton234Click
                0x60003dc4        0x4 _Clavier.o
                0x60003dc4                hmi_OnTextPushButton234Click
 .text.TextPushButton235OnClick
                0x60003dc8       0x58 _Clavier.o
                0x60003dc8                TextPushButton235OnClick
 .text.hmi_OnTextPushButton235Click
                0x60003e20        0x4 _Clavier.o
                0x60003e20                hmi_OnTextPushButton235Click
 .text.TextPushButton236OnClick
                0x60003e24       0x58 _Clavier.o
                0x60003e24                TextPushButton236OnClick
 .text.hmi_OnTextPushButton236Click
                0x60003e7c        0x4 _Clavier.o
                0x60003e7c                hmi_OnTextPushButton236Click
 .text.TextPushButton237OnClick
                0x60003e80       0x58 _Clavier.o
                0x60003e80                TextPushButton237OnClick
 .text.hmi_OnTextPushButton237Click
                0x60003ed8        0x4 _Clavier.o
                0x60003ed8                hmi_OnTextPushButton237Click
 .text.TextPushButton238OnClick
                0x60003edc       0x58 _Clavier.o
                0x60003edc                TextPushButton238OnClick
 .text.hmi_OnTextPushButton238Click
                0x60003f34        0x4 _Clavier.o
                0x60003f34                hmi_OnTextPushButton238Click
 .text.TextPushButton239OnClick
                0x60003f38       0x58 _Clavier.o
                0x60003f38                TextPushButton239OnClick
 .text.hmi_OnTextPushButton239Click
                0x60003f90        0x4 _Clavier.o
                0x60003f90                hmi_OnTextPushButton239Click
 .text.TextPushButton240OnClick
                0x60003f94       0x58 _Clavier.o
                0x60003f94                TextPushButton240OnClick
 .text.hmi_OnTextPushButton240Click
                0x60003fec        0x4 _Clavier.o
                0x60003fec                hmi_OnTextPushButton240Click
 .text.TextPushButton241OnClick
                0x60003ff0       0x58 _Clavier.o
                0x60003ff0                TextPushButton241OnClick
 .text.hmi_OnTextPushButton241Click
                0x60004048        0x4 _Clavier.o
                0x60004048                hmi_OnTextPushButton241Click
 .text.TextPushButton242OnClick
                0x6000404c       0x58 _Clavier.o
                0x6000404c                TextPushButton242OnClick
 .text.hmi_OnTextPushButton242Click
                0x600040a4        0x4 _Clavier.o
                0x600040a4                hmi_OnTextPushButton242Click
 .text.TextPushButton243OnClick
                0x600040a8       0x58 _Clavier.o
                0x600040a8                TextPushButton243OnClick
 .text.hmi_OnTextPushButton243Click
                0x60004100        0x4 _Clavier.o
                0x60004100                hmi_OnTextPushButton243Click
 .text.TextPushButton244OnClick
                0x60004104       0x58 _Clavier.o
                0x60004104                TextPushButton244OnClick
 .text.hmi_OnTextPushButton244Click
                0x6000415c        0x4 _Clavier.o
                0x6000415c                hmi_OnTextPushButton244Click
 .text.TextPushButton245OnClick
                0x60004160       0x58 _Clavier.o
                0x60004160                TextPushButton245OnClick
 .text.hmi_OnTextPushButton245Click
                0x600041b8        0x4 _Clavier.o
                0x600041b8                hmi_OnTextPushButton245Click
 .text.TextPushButton246OnClick
                0x600041bc       0x58 _Clavier.o
                0x600041bc                TextPushButton246OnClick
 .text.hmi_OnTextPushButton246Click
                0x60004214        0x4 _Clavier.o
                0x60004214                hmi_OnTextPushButton246Click
 .text.TextPushButton247OnClick
                0x60004218       0x58 _Clavier.o
                0x60004218                TextPushButton247OnClick
 .text.hmi_OnTextPushButton247Click
                0x60004270        0x4 _Clavier.o
                0x60004270                hmi_OnTextPushButton247Click
 .text.TextPushButton248OnClick
                0x60004274       0x58 _Clavier.o
                0x60004274                TextPushButton248OnClick
 .text.hmi_OnTextPushButton248Click
                0x600042cc        0x4 _Clavier.o
                0x600042cc                hmi_OnTextPushButton248Click
 .text.TextPushButton249OnClick
                0x600042d0       0x58 _Clavier.o
                0x600042d0                TextPushButton249OnClick
 .text.hmi_OnTextPushButton249Click
                0x60004328        0x4 _Clavier.o
                0x60004328                hmi_OnTextPushButton249Click
 .text.TextPushButton256OnClick
                0x6000432c       0x30 _Clavier.o
                0x6000432c                TextPushButton256OnClick
 .text.hmi_OnTextPushButton256Click
                0x6000435c        0x4 _Clavier.o
                0x6000435c                hmi_OnTextPushButton256Click
 .text.TextPushButton251OnClick
                0x60004360       0x58 _Clavier.o
                0x60004360                TextPushButton251OnClick
 .text.hmi_OnTextPushButton251Click
                0x600043b8        0x4 _Clavier.o
                0x600043b8                hmi_OnTextPushButton251Click
 .text.TextPushButton252OnClick
                0x600043bc       0x58 _Clavier.o
                0x600043bc                TextPushButton252OnClick
 .text.hmi_OnTextPushButton252Click
                0x60004414        0x4 _Clavier.o
                0x60004414                hmi_OnTextPushButton252Click
 .text.TextPushButton253OnClick
                0x60004418       0x58 _Clavier.o
                0x60004418                TextPushButton253OnClick
 .text.hmi_OnTextPushButton253Click
                0x60004470        0x4 _Clavier.o
                0x60004470                hmi_OnTextPushButton253Click
 .text.TextPushButton254OnClick
                0x60004474       0x58 _Clavier.o
                0x60004474                TextPushButton254OnClick
 .text.hmi_OnTextPushButton254Click
                0x600044cc        0x4 _Clavier.o
                0x600044cc                hmi_OnTextPushButton254Click
 .text.TextPushButton255OnClick
                0x600044d0       0x58 _Clavier.o
                0x600044d0                TextPushButton255OnClick
 .text.hmi_OnTextPushButton255Click
                0x60004528        0x4 _Clavier.o
                0x60004528                hmi_OnTextPushButton255Click
 .text.TextPushButton257OnClick
                0x6000452c       0x58 _Clavier.o
                0x6000452c                TextPushButton257OnClick
 .text.hmi_OnTextPushButton257Click
                0x60004584        0x4 _Clavier.o
                0x60004584                hmi_OnTextPushButton257Click
 .text.TextPushButton258OnClick
                0x60004588       0x58 _Clavier.o
                0x60004588                TextPushButton258OnClick
 .text.hmi_OnTextPushButton258Click
                0x600045e0        0x4 _Clavier.o
                0x600045e0                hmi_OnTextPushButton258Click
 .text.TextPushButton262OnClick
                0x600045e4       0x58 _Clavier.o
                0x600045e4                TextPushButton262OnClick
 .text.hmi_OnTextPushButton262Click
                0x6000463c        0x4 _Clavier.o
                0x6000463c                hmi_OnTextPushButton262Click
 .text.TextPushButton261OnClick
                0x60004640       0x58 _Clavier.o
                0x60004640                TextPushButton261OnClick
 .text.hmi_OnTextPushButton261Click
                0x60004698        0x4 _Clavier.o
                0x60004698                hmi_OnTextPushButton261Click
 .text.TextPushButton265OnClick
                0x6000469c       0x58 _Clavier.o
                0x6000469c                TextPushButton265OnClick
 .text.hmi_OnTextPushButton265Click
                0x600046f4        0x4 _Clavier.o
                0x600046f4                hmi_OnTextPushButton265Click
 .text.Clavier44OnCreate
                0x600046f8       0x28 _Clavier.o
                0x600046f8                Clavier44OnCreate
 .text.Clavier44OnDestroy
                0x60004720       0x28 _Clavier.o
                0x60004720                Clavier44OnDestroy
 .text.renderClavier44Vector
                0x60004748       0x1c _Clavier.o
                0x60004748                renderClavier44Vector
 .text.OnClavier44Paint
                0x60004764       0x30 _Clavier.o
                0x60004764                OnClavier44Paint
 .text.hmi_InitFrameWidgets9
                0x60004794      0x228 _Clavier.o
                0x60004794                hmi_InitFrameWidgets9
 .text.hmi_FreeFrameWidgets9
                0x600049bc      0x1b4 _Clavier.o
                0x600049bc                hmi_FreeFrameWidgets9
 .text.hmi_Clavier
                0x60004b70       0x1c _Clavier.o
                0x60004b70                hmi_Clavier
 .text.hmi_OnTextPushButton122Release
                0x60004b8c        0x2 _Alerte.o
                0x60004b8c                hmi_OnTextPushButton122Release
 *fill*         0x60004b8e        0x2 
 .text.hmi_OnTextPushButton122Click
                0x60004b90        0xc _Alerte.o
                0x60004b90                hmi_OnTextPushButton122Click
 .text.OnAlerte120Paint
                0x60004b9c       0x24 _Alerte.o
                0x60004b9c                OnAlerte120Paint
 .text.Alerte120OnShow
                0x60004bc0       0x68 _Alerte.o
                0x60004bc0                Alerte120OnShow
 .text.hmi_InitFrameWidgets10
                0x60004c28       0x54 _Alerte.o
                0x60004c28                hmi_InitFrameWidgets10
 .text.hmi_FreeFrameWidgets10
                0x60004c7c       0x28 _Alerte.o
                0x60004c7c                hmi_FreeFrameWidgets10
 .text.hmi_Alerte
                0x60004ca4       0x1c _Alerte.o
                0x60004ca4                hmi_Alerte
 .text.var_table_init
                0x60004cc0       0x2c _dict.o
                0x60004cc0                var_table_init
 .text.__var_count
                0x60004cec        0x4 _dict.o
                0x60004cec                __var_count
 .text.passDataThruBindingOnChange
                0x60004cf0        0x2 _dict.o
                0x60004cf0                passDataThruBindingOnChange
 .text.ladder_main
                0x60004cf2        0xa ladder.o
                0x60004cf2                ladder_main
 .text.ladder_test_ldx
                0x60004cfc        0x4 ladder_test_ldx.o
                0x60004cfc                ladder_test_ldx
 .text.NmiSR    0x60004d00        0x2 c:/ICPDAS/HMIWorks_Standard/lib/VPD-133/startup_gcc.o
 .text.FaultISR
                0x60004d02        0x2 c:/ICPDAS/HMIWorks_Standard/lib/VPD-133/startup_gcc.o
 .text.IntDefaultHandler
                0x60004d04        0x2 c:/ICPDAS/HMIWorks_Standard/lib/VPD-133/startup_gcc.o
 *fill*         0x60004d06        0x2 
 .text.ResetISR
                0x60004d08       0x44 c:/ICPDAS/HMIWorks_Standard/lib/VPD-133/startup_gcc.o
                0x60004d08                ResetISR
 .text.hmi_FillRect
                0x60004d4c       0x28 c:/ICPDAS/HMIWorks_Standard/lib/commonlo.a(hmi.o)
                0x60004d4c                hmi_FillRect
 .text.hmi_SetForeground
                0x60004d74       0x10 c:/ICPDAS/HMIWorks_Standard/lib/commonlo.a(hmi.o)
                0x60004d74                hmi_SetForeground
 .text.FloatToStr
                0x60004d84       0xa4 c:/ICPDAS/HMIWorks_Standard/lib/commonlo.a(hmi_util.o)
                0x60004d84                FloatToStr
 .text.default_output
                0x60004e28       0x48 c:/ICPDAS/HMIWorks_Standard/lib/commonlo.a(ladder2c.o)
                0x60004e28                default_output
 .text.default_input
                0x60004e70       0x44 c:/ICPDAS/HMIWorks_Standard/lib/commonlo.a(ladder2c.o)
                0x60004e70                default_input
 .text.var_get  0x60004eb4       0x1c c:/ICPDAS/HMIWorks_Standard/lib/commonlo.a(pvar.o)
                0x60004eb4                var_get
 .text.var_set  0x60004ed0       0x26 c:/ICPDAS/HMIWorks_Standard/lib/commonlo.a(pvar.o)
                0x60004ed0                var_set
 .text.var_display
                0x60004ef6        0xa c:/ICPDAS/HMIWorks_Standard/lib/commonlo.a(pvar.o)
                0x60004ef6                var_display
 .text.var_is_dirty
                0x60004f00        0x4 c:/ICPDAS/HMIWorks_Standard/lib/commonlo.a(pvar.o)
                0x60004f00                var_is_dirty
 .text.var_set_write_data
                0x60004f04       0x2e c:/ICPDAS/HMIWorks_Standard/lib/commonlo.a(pvar.o)
                0x60004f04                var_set_write_data
 .text.TimerMsgProc
                0x60004f32       0x2e c:/ICPDAS/HMIWorks_Standard/lib/commonlo.a(timer.o)
                0x60004f32                TimerMsgProc
 .text.TimerEnabledSet
                0x60004f60       0x20 c:/ICPDAS/HMIWorks_Standard/lib/commonlo.a(timer.o)
                0x60004f60                TimerEnabledSet
 .text.TimerUpdate
                0x60004f80       0x44 c:/ICPDAS/HMIWorks_Standard/lib/commonlo.a(timer.o)
                0x60004f80                TimerUpdate
 .text.TimerIntervalSet
                0x60004fc4        0x8 c:/ICPDAS/HMIWorks_Standard/lib/commonlo.a(timer.o)
                0x60004fc4                TimerIntervalSet
 .text.ustrncpy
                0x60004fcc       0x2e c:/ICPDAS/HMIWorks_Standard/lib/commonlo.a(ustdlib.o)
                0x60004fcc                ustrncpy
 *fill*         0x60004ffa        0x2 
 .text.uvsnprintf
                0x60004ffc      0x248 c:/ICPDAS/HMIWorks_Standard/lib/commonlo.a(ustdlib.o)
                0x60004ffc                uvsnprintf
 .text.usprintf
                0x60005244       0x1e c:/ICPDAS/HMIWorks_Standard/lib/commonlo.a(ustdlib.o)
                0x60005244                usprintf
 *fill*         0x60005262        0x2 
 .text.hmi_Widget_Init
                0x60005264       0xa4 c:/ICPDAS/HMIWorks_Standard/lib/commonlo.a(widget_init.o)
                0x60005264                hmi_Widget_Init
 .text.CanvasMsgProc
                0x60005308      0x1dc c:/ICPDAS/HMIWorks_Standard/lib/libgr.a(canvas.o)
                0x60005308                CanvasMsgProc
 .text.CheckBoxPaint
                0x600054e4      0x294 c:/ICPDAS/HMIWorks_Standard/lib/libgr.a(checkbox.o)
                0x600054e4                CheckBoxPaint
 .text.CheckBoxMsgProc
                0x60005778       0xc4 c:/ICPDAS/HMIWorks_Standard/lib/libgr.a(checkbox.o)
                0x60005778                CheckBoxMsgProc
 .text.GrContextInit
                0x6000583c       0x20 c:/ICPDAS/HMIWorks_Standard/lib/libgr.a(context.o)
                0x6000583c                GrContextInit
 .text.GrContextClipRegionSet
                0x6000585c       0x6a c:/ICPDAS/HMIWorks_Standard/lib/libgr.a(context.o)
                0x6000585c                GrContextClipRegionSet
 .text.PixelTransparentDraw.isra.0
                0x600058c6      0x2d4 c:/ICPDAS/HMIWorks_Standard/lib/libgr.a(image.o)
 *fill*         0x60005b9a        0x2 
 .text.GrInternalImageDraw.isra.1
                0x60005b9c      0x488 c:/ICPDAS/HMIWorks_Standard/lib/libgr.a(image.o)
 .text._GrImageDraw
                0x60006024        0xe c:/ICPDAS/HMIWorks_Standard/lib/libgr.a(image.o)
                0x60006024                _GrImageDraw
 .text.GrClipCodeGet
                0x60006032       0x36 c:/ICPDAS/HMIWorks_Standard/lib/libgr.a(line.o)
 .text.GrLineDrawH
                0x60006068       0x48 c:/ICPDAS/HMIWorks_Standard/lib/libgr.a(line.o)
                0x60006068                GrLineDrawH
 .text.GrLineDrawV
                0x600060b0       0x48 c:/ICPDAS/HMIWorks_Standard/lib/libgr.a(line.o)
                0x600060b0                GrLineDrawV
 .text.GrLineDraw
                0x600060f8      0x174 c:/ICPDAS/HMIWorks_Standard/lib/libgr.a(line.o)
                0x600060f8                GrLineDraw
 .text.RectangularButtonPaint
                0x6000626c      0x228 c:/ICPDAS/HMIWorks_Standard/lib/libgr.a(pushbutton.o)
 .text.RectangularButtonMsgProc
                0x60006494      0x108 c:/ICPDAS/HMIWorks_Standard/lib/libgr.a(pushbutton.o)
                0x60006494                RectangularButtonMsgProc
 .text._GrRectFill
                0x6000659c       0xa6 c:/ICPDAS/HMIWorks_Standard/lib/libgr.a(rectangle.o)
                0x6000659c                _GrRectFill
 .text.GrRectDraw
                0x60006642       0x66 c:/ICPDAS/HMIWorks_Standard/lib/libgr.a(rectangle.o)
                0x60006642                GrRectDraw
 .text.GrStringWidthGet
                0x600066a8       0x6e c:/ICPDAS/HMIWorks_Standard/lib/libgr.a(string.o)
                0x600066a8                GrStringWidthGet
 .text.GrStringDraw
                0x60006716      0x2da c:/ICPDAS/HMIWorks_Standard/lib/libgr.a(string.o)
                0x60006716                GrStringDraw
 .text.RAM_RegisterNullWidgetMsgProc
                0x600069f0        0xc c:/ICPDAS/HMIWorks_Standard/lib/libgr.a(widget.o)
                0x600069f0                RAM_RegisterNullWidgetMsgProc
 .text.RAM_WidgetMutexInit
                0x600069fc        0x6 c:/ICPDAS/HMIWorks_Standard/lib/libgr.a(widget.o)
                0x600069fc                RAM_WidgetMutexInit
 .text.RAM_WidgetMutexGet
                0x60006a02       0x14 c:/ICPDAS/HMIWorks_Standard/lib/libgr.a(widget.o)
                0x60006a02                RAM_WidgetMutexGet
 .text.RAM_WidgetMutexPut
                0x60006a16        0x6 c:/ICPDAS/HMIWorks_Standard/lib/libgr.a(widget.o)
                0x60006a16                RAM_WidgetMutexPut
 .text.WidgetIsInTree
                0x60006a1c       0x28 c:/ICPDAS/HMIWorks_Standard/lib/libgr.a(widget.o)
 .text.WidgetDefaultMsgProc
                0x60006a44        0x4 c:/ICPDAS/HMIWorks_Standard/lib/libgr.a(widget.o)
                0x60006a44                WidgetDefaultMsgProc
 .text.RAM_WidgetAdd
                0x60006a48       0x1e c:/ICPDAS/HMIWorks_Standard/lib/libgr.a(widget.o)
                0x60006a48                RAM_WidgetAdd
 *fill*         0x60006a66        0x2 
 .text.RAM_hmi_TurnTouchBeep
                0x60006a68        0xc c:/ICPDAS/HMIWorks_Standard/lib/libgr.a(widget.o)
                0x60006a68                RAM_hmi_TurnTouchBeep
 .text.RAM_WidgetMessageQueueProcess
                0x60006a74       0x7c c:/ICPDAS/HMIWorks_Standard/lib/libgr.a(widget.o)
                0x60006a74                RAM_WidgetMessageQueueProcess
 .text.RAM_WidgetMessageQueueProcessEx
                0x60006af0       0x68 c:/ICPDAS/HMIWorks_Standard/lib/libgr.a(widget.o)
                0x60006af0                RAM_WidgetMessageQueueProcessEx
 .text.RAM_WidgetMessageQueueClear
                0x60006b58       0x14 c:/ICPDAS/HMIWorks_Standard/lib/libgr.a(widget.o)
                0x60006b58                RAM_WidgetMessageQueueClear
 .text.RAM_WidgetPointerMessage
                0x60006b6c       0x28 c:/ICPDAS/HMIWorks_Standard/lib/libgr.a(widget.o)
                0x60006b6c                RAM_WidgetPointerMessage
 .text.RAM_WidgetRemove
                0x60006b94       0x4c c:/ICPDAS/HMIWorks_Standard/lib/libgr.a(widget.o)
                0x60006b94                RAM_WidgetRemove
 .text.RAM_WidgetMessageSendPreOrder
                0x60006be0       0x7c c:/ICPDAS/HMIWorks_Standard/lib/libgr.a(widget.o)
                0x60006be0                RAM_WidgetMessageSendPreOrder
 .text.RAM_WidgetMessageQueueAdd
                0x60006c5c       0xf8 c:/ICPDAS/HMIWorks_Standard/lib/libgr.a(widget.o)
                0x60006c5c                RAM_WidgetMessageQueueAdd
 .text.RAM_WidgetMessageSendPostOrder
                0x60006d54       0xb8 c:/ICPDAS/HMIWorks_Standard/lib/libgr.a(widget.o)
                0x60006d54                RAM_WidgetMessageSendPostOrder
 .text.hmi_grlib_init
                0x60006e0c        0x4 c:/ICPDAS/HMIWorks_Standard/lib/libgr.a(hmi_grlib.o)
                0x60006e0c                hmi_grlib_init
 .text.hmi_Display_Init
                0x60006e10       0xd4 c:/ICPDAS/HMIWorks_Standard/lib/VPD-133.a(hmi_Init.o)
                0x60006e10                hmi_Display_Init
 .text.hmi_Init
                0x60006ee4       0x80 c:/ICPDAS/HMIWorks_Standard/lib/VPD-133.a(hmi_Init.o)
                0x60006ee4                hmi_Init
 .text.hmi_DelayUS
                0x60006f64       0x16 c:/ICPDAS/HMIWorks_Standard/lib/VPD-133.a(hmi_Init.o)
                0x60006f64                hmi_DelayUS
 *fill*         0x60006f7a        0x2 
 .text.hmi_BacklightSet
                0x60006f7c       0x18 c:/ICPDAS/HMIWorks_Standard/lib/VPD-133.a(hmi_Init.o)
                0x60006f7c                hmi_BacklightSet
 .text.hmi_UserFlashConfig
                0x60006f94       0x16 c:/ICPDAS/HMIWorks_Standard/lib/VPD-133.a(hmi_Init.o)
                0x60006f94                hmi_UserFlashConfig
 *fill*         0x60006faa        0x2 
 .text.hmi_MACAddrInit
                0x60006fac       0x40 c:/ICPDAS/HMIWorks_Standard/lib/VPD-133.a(hmi_Init.o)
                0x60006fac                hmi_MACAddrInit
 .text.hmi_tcp_init
                0x60006fec      0x100 c:/ICPDAS/HMIWorks_Standard/lib/VPD-133.a(hmi_tcp.o)
                0x60006fec                hmi_tcp_init
 .text.hmi_uart_Init
                0x600070ec       0xc8 c:/ICPDAS/HMIWorks_Standard/lib/VPD-133.a(hmi_uart.o)
                0x600070ec                hmi_uart_Init
 .text.hmi_dcon_io_Init
                0x600071b4      0x11c c:/ICPDAS/HMIWorks_Standard/lib/VPD-133.a(dcon_io.o)
                0x600071b4                hmi_dcon_io_Init
 .text.hmi_ShowPanelLed
                0x600072d0       0x16 c:/ICPDAS/HMIWorks_Standard/lib/VPD-133.a(vpanel.o)
                0x600072d0                hmi_ShowPanelLed
 .text.hmi_ReadPanelKey
                0x600072e6       0x16 c:/ICPDAS/HMIWorks_Standard/lib/VPD-133.a(vpanel.o)
                0x600072e6                hmi_ReadPanelKey
 .text.hmi_Beep
                0x600072fc       0x18 c:/ICPDAS/HMIWorks_Standard/lib/VPD-133.a(beep.o)
                0x600072fc                hmi_Beep
 .text.hmi_mbrtu_init
                0x60007314       0x74 c:/ICPDAS/HMIWorks_Standard/lib/VPD-133.a(mbrtu.o)
                0x60007314                hmi_mbrtu_init
 .text.mbtcp_init
                0x60007388       0x80 c:/ICPDAS/HMIWorks_Standard/lib/VPD-133.a(mbtcp.o)
                0x60007388                mbtcp_init
 .text.FlashUserGet
                0x60007408       0x40 c:/ICPDAS/HMIWorks_Standard/lib/libdriver.a(flash.o)
                0x60007408                FlashUserGet
 .text.atoi     0x60007448        0x8 c:/icpdas/hmiworks_standard/gcc/bin/../lib/gcc/arm-none-eabi/4.8.3/../../../../arm-none-eabi/lib/armv7-m/libc.a(lib_a-atoi.o)
                0x60007448                atoi
 .text.malloc   0x60007450       0x10 c:/icpdas/hmiworks_standard/gcc/bin/../lib/gcc/arm-none-eabi/4.8.3/../../../../arm-none-eabi/lib/armv7-m/libc.a(lib_a-malloc.o)
                0x60007450                malloc
 .text.free     0x60007460       0x10 c:/icpdas/hmiworks_standard/gcc/bin/../lib/gcc/arm-none-eabi/4.8.3/../../../../arm-none-eabi/lib/armv7-m/libc.a(lib_a-malloc.o)
                0x60007460                free
 .text._malloc_r
                0x60007470      0x538 c:/icpdas/hmiworks_standard/gcc/bin/../lib/gcc/arm-none-eabi/4.8.3/../../../../arm-none-eabi/lib/armv7-m/libc.a(lib_a-mallocr.o)
                0x60007470                _malloc_r
 .text          0x600079a8       0xec c:/icpdas/hmiworks_standard/gcc/bin/../lib/gcc/arm-none-eabi/4.8.3/../../../../arm-none-eabi/lib/armv7-m/libc.a(lib_a-memcpy.o)
                0x600079a8                memcpy
 .text.memset   0x60007a94       0x94 c:/icpdas/hmiworks_standard/gcc/bin/../lib/gcc/arm-none-eabi/4.8.3/../../../../arm-none-eabi/lib/armv7-m/libc.a(lib_a-memset.o)
                0x60007a94                memset
 .text.__malloc_lock
                0x60007b28        0x4 c:/icpdas/hmiworks_standard/gcc/bin/../lib/gcc/arm-none-eabi/4.8.3/../../../../arm-none-eabi/lib/armv7-m/libc.a(lib_a-mlock.o)
                0x60007b28                __malloc_lock
 .text.__malloc_unlock
                0x60007b2c        0x4 c:/icpdas/hmiworks_standard/gcc/bin/../lib/gcc/arm-none-eabi/4.8.3/../../../../arm-none-eabi/lib/armv7-m/libc.a(lib_a-mlock.o)
                0x60007b2c                __malloc_unlock
 .text.sprintf  0x60007b30       0x4c c:/icpdas/hmiworks_standard/gcc/bin/../lib/gcc/arm-none-eabi/4.8.3/../../../../arm-none-eabi/lib/armv7-m/libc.a(lib_a-sprintf.o)
                0x60007b30                sprintf
 .text.strcat   0x60007b7c       0x4c c:/icpdas/hmiworks_standard/gcc/bin/../lib/gcc/arm-none-eabi/4.8.3/../../../../arm-none-eabi/lib/armv7-m/libc.a(lib_a-strcat.o)
                0x60007b7c                strcat
 .text          0x60007bc8      0x23c c:/icpdas/hmiworks_standard/gcc/bin/../lib/gcc/arm-none-eabi/4.8.3/../../../../arm-none-eabi/lib/armv7-m/libc.a(lib_a-strcmp.o)
                0x60007bc8                strcmp
 .text.strcpy   0x60007e04       0xbc c:/icpdas/hmiworks_standard/gcc/bin/../lib/gcc/arm-none-eabi/4.8.3/../../../../arm-none-eabi/lib/armv7-m/libc.a(lib_a-strcpy.o)
                0x60007e04                strcpy
 .text.strlen   0x60007ec0       0x60 c:/icpdas/hmiworks_standard/gcc/bin/../lib/gcc/arm-none-eabi/4.8.3/../../../../arm-none-eabi/lib/armv7-m/libc.a(lib_a-strlen.o)
                0x60007ec0                strlen
 .text.strncpy  0x60007f20       0x64 c:/icpdas/hmiworks_standard/gcc/bin/../lib/gcc/arm-none-eabi/4.8.3/../../../../arm-none-eabi/lib/armv7-m/libc.a(lib_a-strncpy.o)
                0x60007f20                strncpy
 .text.sulp     0x60007f84       0x40 c:/icpdas/hmiworks_standard/gcc/bin/../lib/gcc/arm-none-eabi/4.8.3/../../../../arm-none-eabi/lib/armv7-m/libc.a(lib_a-strtod.o)
 *fill*         0x60007fc4        0x4 
 .text._strtod_r
                0x60007fc8      0xf48 c:/icpdas/hmiworks_standard/gcc/bin/../lib/gcc/arm-none-eabi/4.8.3/../../../../arm-none-eabi/lib/armv7-m/libc.a(lib_a-strtod.o)
                0x60007fc8                _strtod_r
 .text.strtof   0x60008f10       0x30 c:/icpdas/hmiworks_standard/gcc/bin/../lib/gcc/arm-none-eabi/4.8.3/../../../../arm-none-eabi/lib/armv7-m/libc.a(lib_a-strtod.o)
                0x60008f10                strtof
 .text._strtol_r
                0x60008f40      0x114 c:/icpdas/hmiworks_standard/gcc/bin/../lib/gcc/arm-none-eabi/4.8.3/../../../../arm-none-eabi/lib/armv7-m/libc.a(lib_a-strtol.o)
                0x60008f40                _strtol_r
 .text.strtol   0x60009054       0x18 c:/icpdas/hmiworks_standard/gcc/bin/../lib/gcc/arm-none-eabi/4.8.3/../../../../arm-none-eabi/lib/armv7-m/libc.a(lib_a-strtol.o)
                0x60009054                strtol
 .text._svfprintf_r
                0x6000906c     0x14e0 c:/icpdas/hmiworks_standard/gcc/bin/../lib/gcc/arm-none-eabi/4.8.3/../../../../arm-none-eabi/lib/armv7-m/libc.a(lib_a-svfprintf.o)
                0x6000906c                _svfprintf_r
 .text._sbrk    0x6000a54c       0x3c c:/icpdas/hmiworks_standard/gcc/bin/../lib/gcc/arm-none-eabi/4.8.3/../../../../arm-none-eabi/lib/armv7-m/libc.a(tpd_syscalls.o)
                0x6000a54c                _sbrk
 .text._sbrk_r  0x6000a588        0x6 c:/icpdas/hmiworks_standard/gcc/bin/../lib/gcc/arm-none-eabi/4.8.3/../../../../arm-none-eabi/lib/armv7-m/libc.a(tpd_syscalls.o)
                0x6000a588                _sbrk_r
 *fill*         0x6000a58e        0x2 
 .text.quorem   0x6000a590      0x134 c:/icpdas/hmiworks_standard/gcc/bin/../lib/gcc/arm-none-eabi/4.8.3/../../../../arm-none-eabi/lib/armv7-m/libc.a(lib_a-dtoa.o)
 *fill*         0x6000a6c4        0x4 
 .text._dtoa_r  0x6000a6c8      0xe38 c:/icpdas/hmiworks_standard/gcc/bin/../lib/gcc/arm-none-eabi/4.8.3/../../../../arm-none-eabi/lib/armv7-m/libc.a(lib_a-dtoa.o)
                0x6000a6c8                _dtoa_r
 .text._malloc_trim_r
                0x6000b500       0x9c c:/icpdas/hmiworks_standard/gcc/bin/../lib/gcc/arm-none-eabi/4.8.3/../../../../arm-none-eabi/lib/armv7-m/libc.a(lib_a-freer.o)
                0x6000b500                _malloc_trim_r
 .text._free_r  0x6000b59c      0x198 c:/icpdas/hmiworks_standard/gcc/bin/../lib/gcc/arm-none-eabi/4.8.3/../../../../arm-none-eabi/lib/armv7-m/libc.a(lib_a-freer.o)
                0x6000b59c                _free_r
 .text.rshift   0x6000b734       0xa0 c:/icpdas/hmiworks_standard/gcc/bin/../lib/gcc/arm-none-eabi/4.8.3/../../../../arm-none-eabi/lib/armv7-m/libc.a(lib_a-gdtoa-gethex.o)
 .text.__gethex
                0x6000b7d4      0x538 c:/icpdas/hmiworks_standard/gcc/bin/../lib/gcc/arm-none-eabi/4.8.3/../../../../arm-none-eabi/lib/armv7-m/libc.a(lib_a-gdtoa-gethex.o)
                0x6000b7d4                __gethex
 .text.__hexnan
                0x6000bd0c      0x194 c:/icpdas/hmiworks_standard/gcc/bin/../lib/gcc/arm-none-eabi/4.8.3/../../../../arm-none-eabi/lib/armv7-m/libc.a(lib_a-gdtoa-hexnan.o)
                0x6000bd0c                __hexnan
 .text._localeconv_r
                0x6000bea0        0x8 c:/icpdas/hmiworks_standard/gcc/bin/../lib/gcc/arm-none-eabi/4.8.3/../../../../arm-none-eabi/lib/armv7-m/libc.a(lib_a-locale.o)
                0x6000bea0                _localeconv_r
 .text.memchr   0x6000bea8       0x94 c:/icpdas/hmiworks_standard/gcc/bin/../lib/gcc/arm-none-eabi/4.8.3/../../../../arm-none-eabi/lib/armv7-m/libc.a(lib_a-memchr-stub.o)
                0x6000bea8                memchr
 .text._Balloc  0x6000bf3c       0x4c c:/icpdas/hmiworks_standard/gcc/bin/../lib/gcc/arm-none-eabi/4.8.3/../../../../arm-none-eabi/lib/armv7-m/libc.a(lib_a-mprec.o)
                0x6000bf3c                _Balloc
 .text._Bfree   0x6000bf88       0x14 c:/icpdas/hmiworks_standard/gcc/bin/../lib/gcc/arm-none-eabi/4.8.3/../../../../arm-none-eabi/lib/armv7-m/libc.a(lib_a-mprec.o)
                0x6000bf88                _Bfree
 .text.__multadd
                0x6000bf9c       0x94 c:/icpdas/hmiworks_standard/gcc/bin/../lib/gcc/arm-none-eabi/4.8.3/../../../../arm-none-eabi/lib/armv7-m/libc.a(lib_a-mprec.o)
                0x6000bf9c                __multadd
 .text.__s2b    0x6000c030       0x98 c:/icpdas/hmiworks_standard/gcc/bin/../lib/gcc/arm-none-eabi/4.8.3/../../../../arm-none-eabi/lib/armv7-m/libc.a(lib_a-mprec.o)
                0x6000c030                __s2b
 .text.__hi0bits
                0x6000c0c8       0x40 c:/icpdas/hmiworks_standard/gcc/bin/../lib/gcc/arm-none-eabi/4.8.3/../../../../arm-none-eabi/lib/armv7-m/libc.a(lib_a-mprec.o)
                0x6000c0c8                __hi0bits
 .text.__lo0bits
                0x6000c108       0x5c c:/icpdas/hmiworks_standard/gcc/bin/../lib/gcc/arm-none-eabi/4.8.3/../../../../arm-none-eabi/lib/armv7-m/libc.a(lib_a-mprec.o)
                0x6000c108                __lo0bits
 .text.__i2b    0x6000c164       0x14 c:/icpdas/hmiworks_standard/gcc/bin/../lib/gcc/arm-none-eabi/4.8.3/../../../../arm-none-eabi/lib/armv7-m/libc.a(lib_a-mprec.o)
                0x6000c164                __i2b
 .text.__multiply
                0x6000c178      0x13c c:/icpdas/hmiworks_standard/gcc/bin/../lib/gcc/arm-none-eabi/4.8.3/../../../../arm-none-eabi/lib/armv7-m/libc.a(lib_a-mprec.o)
                0x6000c178                __multiply
 .text.__pow5mult
                0x6000c2b4       0x9c c:/icpdas/hmiworks_standard/gcc/bin/../lib/gcc/arm-none-eabi/4.8.3/../../../../arm-none-eabi/lib/armv7-m/libc.a(lib_a-mprec.o)
                0x6000c2b4                __pow5mult
 .text.__lshift
                0x6000c350       0xbc c:/icpdas/hmiworks_standard/gcc/bin/../lib/gcc/arm-none-eabi/4.8.3/../../../../arm-none-eabi/lib/armv7-m/libc.a(lib_a-mprec.o)
                0x6000c350                __lshift
 .text.__mcmp   0x6000c40c       0x48 c:/icpdas/hmiworks_standard/gcc/bin/../lib/gcc/arm-none-eabi/4.8.3/../../../../arm-none-eabi/lib/armv7-m/libc.a(lib_a-mprec.o)
                0x6000c40c                __mcmp
 .text.__mdiff  0x6000c454       0xd8 c:/icpdas/hmiworks_standard/gcc/bin/../lib/gcc/arm-none-eabi/4.8.3/../../../../arm-none-eabi/lib/armv7-m/libc.a(lib_a-mprec.o)
                0x6000c454                __mdiff
 .text.__ulp    0x6000c52c       0x40 c:/icpdas/hmiworks_standard/gcc/bin/../lib/gcc/arm-none-eabi/4.8.3/../../../../arm-none-eabi/lib/armv7-m/libc.a(lib_a-mprec.o)
                0x6000c52c                __ulp
 .text.__b2d    0x6000c56c       0xb8 c:/icpdas/hmiworks_standard/gcc/bin/../lib/gcc/arm-none-eabi/4.8.3/../../../../arm-none-eabi/lib/armv7-m/libc.a(lib_a-mprec.o)
                0x6000c56c                __b2d
 .text.__d2b    0x6000c624       0xbc c:/icpdas/hmiworks_standard/gcc/bin/../lib/gcc/arm-none-eabi/4.8.3/../../../../arm-none-eabi/lib/armv7-m/libc.a(lib_a-mprec.o)
                0x6000c624                __d2b
 .text.__ratio  0x6000c6e0       0x50 c:/icpdas/hmiworks_standard/gcc/bin/../lib/gcc/arm-none-eabi/4.8.3/../../../../arm-none-eabi/lib/armv7-m/libc.a(lib_a-mprec.o)
                0x6000c6e0                __ratio
 .text.__copybits
                0x6000c730       0x48 c:/icpdas/hmiworks_standard/gcc/bin/../lib/gcc/arm-none-eabi/4.8.3/../../../../arm-none-eabi/lib/armv7-m/libc.a(lib_a-mprec.o)
                0x6000c730                __copybits
 .text.__any_on
                0x6000c778       0x60 c:/icpdas/hmiworks_standard/gcc/bin/../lib/gcc/arm-none-eabi/4.8.3/../../../../arm-none-eabi/lib/armv7-m/libc.a(lib_a-mprec.o)
                0x6000c778                __any_on
 .text.__fpclassifyd
                0x6000c7d8       0x50 c:/icpdas/hmiworks_standard/gcc/bin/../lib/gcc/arm-none-eabi/4.8.3/../../../../arm-none-eabi/lib/armv7-m/libc.a(lib_a-s_fpclassify.o)
                0x6000c7d8                __fpclassifyd
 .text.nanf     0x6000c828        0x8 c:/icpdas/hmiworks_standard/gcc/bin/../lib/gcc/arm-none-eabi/4.8.3/../../../../arm-none-eabi/lib/armv7-m/libc.a(lib_a-sf_nan.o)
                0x6000c828                nanf
 .text.strncmp  0x6000c830       0xb4 c:/icpdas/hmiworks_standard/gcc/bin/../lib/gcc/arm-none-eabi/4.8.3/../../../../arm-none-eabi/lib/armv7-m/libc.a(lib_a-strncmp.o)
                0x6000c830                strncmp
 .text.__ssprint_r
                0x6000c8e4      0x100 c:/icpdas/hmiworks_standard/gcc/bin/../lib/gcc/arm-none-eabi/4.8.3/../../../../arm-none-eabi/lib/armv7-m/libc.a(lib_a-svfiprintf.o)
                0x6000c8e4                __ssprint_r
 .text._calloc_r
                0x6000c9e4       0x60 c:/icpdas/hmiworks_standard/gcc/bin/../lib/gcc/arm-none-eabi/4.8.3/../../../../arm-none-eabi/lib/armv7-m/libc.a(lib_a-callocr.o)
                0x6000c9e4                _calloc_r
 .text.memmove  0x6000ca44       0xcc c:/icpdas/hmiworks_standard/gcc/bin/../lib/gcc/arm-none-eabi/4.8.3/../../../../arm-none-eabi/lib/armv7-m/libc.a(lib_a-memmove.o)
                0x6000ca44                memmove
 .text._realloc_r
                0x6000cb10      0x3c0 c:/icpdas/hmiworks_standard/gcc/bin/../lib/gcc/arm-none-eabi/4.8.3/../../../../arm-none-eabi/lib/armv7-m/libc.a(lib_a-reallocr.o)
                0x6000cb10                _realloc_r
 .text          0x6000ced0      0x370 c:/icpdas/hmiworks_standard/gcc/bin/../lib/gcc/arm-none-eabi/4.8.3/armv7-m/libgcc.a(_arm_addsubdf3.o)
                0x6000ced0                __aeabi_drsub
                0x6000ced8                __aeabi_dsub
                0x6000ced8                __subdf3
                0x6000cedc                __aeabi_dadd
                0x6000cedc                __adddf3
                0x6000d154                __floatunsidf
                0x6000d154                __aeabi_ui2d
                0x6000d174                __floatsidf
                0x6000d174                __aeabi_i2d
                0x6000d198                __aeabi_f2d
                0x6000d198                __extendsfdf2
                0x6000d1d4                __floatundidf
                0x6000d1d4                __aeabi_ul2d
                0x6000d1e4                __floatdidf
                0x6000d1e4                __aeabi_l2d
 .text          0x6000d240      0x424 c:/icpdas/hmiworks_standard/gcc/bin/../lib/gcc/arm-none-eabi/4.8.3/armv7-m/libgcc.a(_arm_muldivdf3.o)
                0x6000d240                __aeabi_dmul
                0x6000d240                __muldf3
                0x6000d494                __divdf3
                0x6000d494                __aeabi_ddiv
 .text          0x6000d664      0x110 c:/icpdas/hmiworks_standard/gcc/bin/../lib/gcc/arm-none-eabi/4.8.3/armv7-m/libgcc.a(_arm_cmpdf2.o)
                0x6000d664                __gtdf2
                0x6000d664                __gedf2
                0x6000d66c                __ltdf2
                0x6000d66c                __ledf2
                0x6000d674                __nedf2
                0x6000d674                __eqdf2
                0x6000d674                __cmpdf2
                0x6000d6f0                __aeabi_cdrcmple
                0x6000d700                __aeabi_cdcmpeq
                0x6000d700                __aeabi_cdcmple
                0x6000d710                __aeabi_dcmpeq
                0x6000d724                __aeabi_dcmplt
                0x6000d738                __aeabi_dcmple
                0x6000d74c                __aeabi_dcmpge
                0x6000d760                __aeabi_dcmpgt
 .text          0x6000d774       0x50 c:/icpdas/hmiworks_standard/gcc/bin/../lib/gcc/arm-none-eabi/4.8.3/armv7-m/libgcc.a(_arm_fixdfsi.o)
                0x6000d774                __aeabi_d2iz
                0x6000d774                __fixdfsi
 .text          0x6000d7c4       0x40 c:/icpdas/hmiworks_standard/gcc/bin/../lib/gcc/arm-none-eabi/4.8.3/armv7-m/libgcc.a(_arm_fixunsdfsi.o)
                0x6000d7c4                __aeabi_d2uiz
                0x6000d7c4                __fixunsdfsi
 .text          0x6000d804       0xa0 c:/icpdas/hmiworks_standard/gcc/bin/../lib/gcc/arm-none-eabi/4.8.3/armv7-m/libgcc.a(_arm_truncdfsf2.o)
                0x6000d804                __truncdfsf2
                0x6000d804                __aeabi_d2f
 .text          0x6000d8a4      0x21c c:/icpdas/hmiworks_standard/gcc/bin/../lib/gcc/arm-none-eabi/4.8.3/armv7-m/libgcc.a(_arm_addsubsf3.o)
                0x6000d8a4                __aeabi_frsub
                0x6000d8ac                __subsf3
                0x6000d8ac                __aeabi_fsub
                0x6000d8b0                __aeabi_fadd
                0x6000d8b0                __addsf3
                0x6000da10                __aeabi_ui2f
                0x6000da10                __floatunsisf
                0x6000da18                __aeabi_i2f
                0x6000da18                __floatsisf
                0x6000da34                __aeabi_ul2f
                0x6000da34                __floatundisf
                0x6000da44                __aeabi_l2f
                0x6000da44                __floatdisf
 .text          0x6000dac0      0x2a0 c:/icpdas/hmiworks_standard/gcc/bin/../lib/gcc/arm-none-eabi/4.8.3/armv7-m/libgcc.a(_arm_muldivsf3.o)
                0x6000dac0                __mulsf3
                0x6000dac0                __aeabi_fmul
                0x6000dc28                __aeabi_fdiv
                0x6000dc28                __divsf3
 .text          0x6000dd60       0xec c:/icpdas/hmiworks_standard/gcc/bin/../lib/gcc/arm-none-eabi/4.8.3/armv7-m/libgcc.a(_arm_cmpsf2.o)
                0x6000dd60                __gesf2
                0x6000dd60                __gtsf2
                0x6000dd68                __lesf2
                0x6000dd68                __ltsf2
                0x6000dd70                __nesf2
                0x6000dd70                __eqsf2
                0x6000dd70                __cmpsf2
                0x6000ddd0                __aeabi_cfrcmple
                0x6000ddd8                __aeabi_cfcmpeq
                0x6000ddd8                __aeabi_cfcmple
                0x6000dde8                __aeabi_fcmpeq
                0x6000ddfc                __aeabi_fcmplt
                0x6000de10                __aeabi_fcmple
                0x6000de24                __aeabi_fcmpge
                0x6000de38                __aeabi_fcmpgt
 .text          0x6000de4c       0x4c c:/icpdas/hmiworks_standard/gcc/bin/../lib/gcc/arm-none-eabi/4.8.3/armv7-m/libgcc.a(_arm_fixsfsi.o)
                0x6000de4c                __aeabi_f2iz
                0x6000de4c                __fixsfsi
 .text          0x6000de98       0x2c c:/icpdas/hmiworks_standard/gcc/bin/../lib/gcc/arm-none-eabi/4.8.3/armv7-m/libgcc.a(_aeabi_uldivmod.o)
                0x6000de98                __aeabi_uldivmod
 .text          0x6000dec4       0x60 c:/icpdas/hmiworks_standard/gcc/bin/../lib/gcc/arm-none-eabi/4.8.3/armv7-m/libgcc.a(bpabi.o)
                0x6000dec4                __gnu_ldivmod_helper
                0x6000def4                __gnu_uldivmod_helper
 .text          0x6000df24        0x4 c:/icpdas/hmiworks_standard/gcc/bin/../lib/gcc/arm-none-eabi/4.8.3/armv7-m/libgcc.a(_dvmd_tls.o)
                0x6000df24                __aeabi_idiv0
                0x6000df24                __aeabi_ldiv0
 .text          0x6000df28      0x2a0 c:/icpdas/hmiworks_standard/gcc/bin/../lib/gcc/arm-none-eabi/4.8.3/armv7-m/libgcc.a(_divdi3.o)
                0x6000df28                __divdi3
 .text          0x6000e1c8      0x290 c:/icpdas/hmiworks_standard/gcc/bin/../lib/gcc/arm-none-eabi/4.8.3/armv7-m/libgcc.a(_udivdi3.o)
                0x6000e1c8                __udivdi3
 *(.rodata*)
 .rodata.str1.1
                0x6000e458       0x64 _frame0.o
 .rodata.str1.1
                0x6000e4bc        0xa _demarrage.o
                                 0x17 (size before relaxing)
 .rodata.str1.1
                0x6000e4c6       0x15 _PavetNum.o
                                 0x5b (size before relaxing)
 .rodata.str1.1
                0x6000e4db       0x6b _ConfigModule.o
                                 0x8b (size before relaxing)
 .rodata.str1.1
                0x6000e546       0x5a _ConfigCapteur.o
                                 0x84 (size before relaxing)
 .rodata.str1.1
                0x6000e5a0       0x3b _Etalonnage.o
                                 0x78 (size before relaxing)
 .rodata.str1.1
                0x6000e5db       0x45 _Seuillage.o
                                 0x7f (size before relaxing)
 .rodata.str1.1
                0x6000e620       0x31 _SeuilUn.o
                                 0x6b (size before relaxing)
 .rodata.str1.1
                0x6000e651        0x7 _Affichage.o
                                 0x3e (size before relaxing)
 .rodata.str1.1
                0x6000e658       0x35 _Clavier.o
                                 0x94 (size before relaxing)
 .rodata.str1.1
                0x6000e68d       0x54 _Alerte.o
                                 0x62 (size before relaxing)
 .rodata.pucImagePress_ConfigE115
                0x6000e6e1      0x563 imagedata.o
                0x6000e6e1                pucImagePress_ConfigE115
 .rodata.ObjectList60_45x31_0_pucImage_Group6
                0x6000ec44      0xaeb imagedata.o
                0x6000ec44                ObjectList60_45x31_0_pucImage_Group6
 .rodata.pucImage_Picture114
                0x6000f72f     0x3fe0 imagedata.o
                0x6000f72f                pucImage_Picture114
 .rodata.pucImagePress_Etalonnage138
                0x6001370f      0xa2c imagedata.o
                0x6001370f                pucImagePress_Etalonnage138
 .rodata.pucImagePress_ConfigM113
                0x6001413b      0x584 imagedata.o
                0x6001413b                pucImagePress_ConfigM113
 .rodata.pucImage_Picture10
                0x600146bf    0x16ab9 imagedata.o
                0x600146bf                pucImage_Picture10
 .rodata.pucImagePress_ConfigS116
                0x6002b178      0x501 imagedata.o
                0x6002b178                pucImagePress_ConfigS116
 .rodata.ObjectList72_50x30_0_pucImage_Group6
                0x6002b679      0xbbd imagedata.o
                0x6002b679                ObjectList72_50x30_0_pucImage_Group6
 .rodata.pucImage_OK37
                0x6002c236      0x263 imagedata.o
                0x6002c236                pucImage_OK37
 .rodata.pucImage_Etalonnage138
                0x6002c499      0xa35 imagedata.o
                0x6002c499                pucImage_Etalonnage138
 .rodata.pucImage_ConfigC117
                0x6002cece      0x586 imagedata.o
                0x6002cece                pucImage_ConfigC117
 .rodata.ObjectList161_36x27_0_pucImage_Group6
                0x6002d454      0x79d imagedata.o
                0x6002d454                ObjectList161_36x27_0_pucImage_Group6
 .rodata.pucImagePress_Valider111
                0x6002dbf1      0x34a imagedata.o
                0x6002dbf1                pucImagePress_Valider111
 .rodata.ObjectList65_55x33_0_pucImage_Group40
                0x6002df3b      0xe33 imagedata.o
                0x6002df3b                ObjectList65_55x33_0_pucImage_Group40
 .rodata.pucImage_Valider111
                0x6002ed6e      0x34a imagedata.o
                0x6002ed6e                pucImage_Valider111
 .rodata.pucImage_ConfigE115
                0x6002f0b8      0x567 imagedata.o
                0x6002f0b8                pucImage_ConfigE115
 .rodata.ObjectList66_50x30_0_pucImage_Group6
                0x6002f61f      0xbbd imagedata.o
                0x6002f61f                ObjectList66_50x30_0_pucImage_Group6
 .rodata.ObjectList155_50x30_0_pucImage_Group6
                0x600301dc      0xbbd imagedata.o
                0x600301dc                ObjectList155_50x30_0_pucImage_Group6
 .rodata.pucImagePress_ConfigC117
                0x60030d99      0x582 imagedata.o
                0x60030d99                pucImagePress_ConfigC117
 .rodata.ObjectList155_44x33_0_pucImage_Group6
                0x6003131b      0xb5d imagedata.o
                0x6003131b                ObjectList155_44x33_0_pucImage_Group6
 .rodata.pucImage_ConfigM113
                0x60031e78      0x588 imagedata.o
                0x60031e78                pucImage_ConfigM113
 .rodata.pucImage_ConfigS116
                0x60032400      0x4fd imagedata.o
                0x60032400                pucImage_ConfigS116
 .rodata.ObjectList53_50x30_0_pucImage_Group6
                0x600328fd      0xbbd imagedata.o
                0x600328fd                ObjectList53_50x30_0_pucImage_Group6
 .rodata.pucImagePress_OK37
                0x600334ba      0x263 imagedata.o
                0x600334ba                pucImagePress_OK37
 *fill*         0x6003371d        0x3 
 .rodata._fRounding
                0x60033720       0x18 c:/ICPDAS/HMIWorks_Standard/lib/commonlo.a(hmi_util.o)
                0x60033720                _fRounding
 .rodata.str1.1
                0x60033738       0x91 c:/ICPDAS/HMIWorks_Standard/lib/commonlo.a(hmi_util.o)
                                 0xc1 (size before relaxing)
 .rodata.str1.1
                0x600337c9       0x17 c:/ICPDAS/HMIWorks_Standard/lib/commonlo.a(ustdlib.o)
 .rodata.g_sFontCm18
                0x600337e0       0xc8 c:/ICPDAS/HMIWorks_Standard/lib/fonts.a(fontcm18.o)
                0x600337e0                g_sFontCm18
 .rodata.g_pucCm18Data
                0x600338a8      0x86e c:/ICPDAS/HMIWorks_Standard/lib/fonts.a(fontcm18.o)
 .rodata.g_pucCm18bData
                0x60034116      0x833 c:/ICPDAS/HMIWorks_Standard/lib/fonts.a(fontcm18b.o)
 *fill*         0x60034949        0x3 
 .rodata.g_sFontCm18b
                0x6003494c       0xc8 c:/ICPDAS/HMIWorks_Standard/lib/fonts.a(fontcm18b.o)
                0x6003494c                g_sFontCm18b
 .rodata.g_sFontCm18i
                0x60034a14       0xc8 c:/ICPDAS/HMIWorks_Standard/lib/fonts.a(fontcm18i.o)
                0x60034a14                g_sFontCm18i
 .rodata.g_pucCm18iData
                0x60034adc      0x8ba c:/ICPDAS/HMIWorks_Standard/lib/fonts.a(fontcm18i.o)
 *fill*         0x60035396        0x2 
 .rodata.g_sFontCm20b
                0x60035398       0xc8 c:/ICPDAS/HMIWorks_Standard/lib/fonts.a(fontcm20b.o)
                0x60035398                g_sFontCm20b
 .rodata.g_pucCm20bData
                0x60035460      0x94d c:/ICPDAS/HMIWorks_Standard/lib/fonts.a(fontcm20b.o)
 .rodata.g_pucCm22bData
                0x60035dad      0xa29 c:/ICPDAS/HMIWorks_Standard/lib/fonts.a(fontcm22b.o)
 *fill*         0x600367d6        0x2 
 .rodata.g_sFontCm22b
                0x600367d8       0xc8 c:/ICPDAS/HMIWorks_Standard/lib/fonts.a(fontcm22b.o)
                0x600367d8                g_sFontCm22b
 .rodata.g_pucCm24bData
                0x600368a0      0xb19 c:/ICPDAS/HMIWorks_Standard/lib/fonts.a(fontcm24b.o)
 *fill*         0x600373b9        0x3 
 .rodata.g_sFontCm24b
                0x600373bc       0xc8 c:/ICPDAS/HMIWorks_Standard/lib/fonts.a(fontcm24b.o)
                0x600373bc                g_sFontCm24b
 .rodata.g_sFontCm26b
                0x60037484       0xc8 c:/ICPDAS/HMIWorks_Standard/lib/fonts.a(fontcm26b.o)
                0x60037484                g_sFontCm26b
 .rodata.g_pucCm26bData
                0x6003754c      0xbf8 c:/ICPDAS/HMIWorks_Standard/lib/fonts.a(fontcm26b.o)
 .rodata.g_sFontCm30b
                0x60038144       0xc8 c:/ICPDAS/HMIWorks_Standard/lib/fonts.a(fontcm30b.o)
                0x60038144                g_sFontCm30b
 .rodata.g_pucCm30bData
                0x6003820c      0xd2c c:/ICPDAS/HMIWorks_Standard/lib/fonts.a(fontcm30b.o)
 .rodata.g_sFontCm42b
                0x60038f38       0xc8 c:/ICPDAS/HMIWorks_Standard/lib/fonts.a(fontcm42b.o)
                0x60038f38                g_sFontCm42b
 .rodata.g_pucCm42bData
                0x60039000     0x13db c:/ICPDAS/HMIWorks_Standard/lib/fonts.a(fontcm42b.o)
 *fill*         0x6003a3db        0x1 
 .rodata._ctype_
                0x6003a3dc      0x104 c:/icpdas/hmiworks_standard/gcc/bin/../lib/gcc/arm-none-eabi/4.8.3/../../../../arm-none-eabi/lib/armv7-m/libc.a(lib_a-ctype_.o)
                0x6003a3dc                _ctype_
 .rodata.str1.4
                0x6003a4e0        0xf c:/icpdas/hmiworks_standard/gcc/bin/../lib/gcc/arm-none-eabi/4.8.3/../../../../arm-none-eabi/lib/armv7-m/libc.a(lib_a-strtod.o)
                                 0x10 (size before relaxing)
 *fill*         0x6003a4ef        0x1 
 .rodata.fpi.5257
                0x6003a4f0       0x14 c:/icpdas/hmiworks_standard/gcc/bin/../lib/gcc/arm-none-eabi/4.8.3/../../../../arm-none-eabi/lib/armv7-m/libc.a(lib_a-strtod.o)
 *fill*         0x6003a504        0x4 
 .rodata.tinytens
                0x6003a508       0x28 c:/icpdas/hmiworks_standard/gcc/bin/../lib/gcc/arm-none-eabi/4.8.3/../../../../arm-none-eabi/lib/armv7-m/libc.a(lib_a-strtod.o)
 .rodata.fpinan.5293
                0x6003a530       0x14 c:/icpdas/hmiworks_standard/gcc/bin/../lib/gcc/arm-none-eabi/4.8.3/../../../../arm-none-eabi/lib/armv7-m/libc.a(lib_a-strtod.o)
 .rodata.blanks.6743
                0x6003a544       0x10 c:/icpdas/hmiworks_standard/gcc/bin/../lib/gcc/arm-none-eabi/4.8.3/../../../../arm-none-eabi/lib/armv7-m/libc.a(lib_a-svfprintf.o)
 .rodata.str1.4
                0x6003a554       0x42 c:/icpdas/hmiworks_standard/gcc/bin/../lib/gcc/arm-none-eabi/4.8.3/../../../../arm-none-eabi/lib/armv7-m/libc.a(lib_a-svfprintf.o)
                                 0x44 (size before relaxing)
 *fill*         0x6003a596        0x2 
 .rodata.zeroes.6744
                0x6003a598       0x10 c:/icpdas/hmiworks_standard/gcc/bin/../lib/gcc/arm-none-eabi/4.8.3/../../../../arm-none-eabi/lib/armv7-m/libc.a(lib_a-svfprintf.o)
 .rodata.str1.4
                0x6003a5a8       0x10 c:/icpdas/hmiworks_standard/gcc/bin/../lib/gcc/arm-none-eabi/4.8.3/../../../../arm-none-eabi/lib/armv7-m/libc.a(lib_a-dtoa.o)
                                 0x14 (size before relaxing)
 .rodata.__hexdig
                0x6003a5b8      0x100 c:/icpdas/hmiworks_standard/gcc/bin/../lib/gcc/arm-none-eabi/4.8.3/../../../../arm-none-eabi/lib/armv7-m/libc.a(lib_a-gdtoa-gethex.o)
                0x6003a5b8                __hexdig
 .rodata.str1.4
                0x6003a6b8        0x2 c:/icpdas/hmiworks_standard/gcc/bin/../lib/gcc/arm-none-eabi/4.8.3/../../../../arm-none-eabi/lib/armv7-m/libc.a(lib_a-impure.o)
                                  0x4 (size before relaxing)
 *fill*         0x6003a6ba        0x2 
 .rodata.str1.4
                0x6003a6bc        0xc c:/icpdas/hmiworks_standard/gcc/bin/../lib/gcc/arm-none-eabi/4.8.3/../../../../arm-none-eabi/lib/armv7-m/libc.a(lib_a-locale.o)
                                 0x14 (size before relaxing)
 .rodata.p05.5288
                0x6003a6c8        0xc c:/icpdas/hmiworks_standard/gcc/bin/../lib/gcc/arm-none-eabi/4.8.3/../../../../arm-none-eabi/lib/armv7-m/libc.a(lib_a-mprec.o)
 *fill*         0x6003a6d4        0x4 
 .rodata.__mprec_tens
                0x6003a6d8       0xc8 c:/icpdas/hmiworks_standard/gcc/bin/../lib/gcc/arm-none-eabi/4.8.3/../../../../arm-none-eabi/lib/armv7-m/libc.a(lib_a-mprec.o)
                0x6003a6d8                __mprec_tens
 .rodata.__mprec_bigtens
                0x6003a7a0       0x28 c:/icpdas/hmiworks_standard/gcc/bin/../lib/gcc/arm-none-eabi/4.8.3/../../../../arm-none-eabi/lib/armv7-m/libc.a(lib_a-mprec.o)
                0x6003a7a0                __mprec_bigtens
                0x6003a7c8                _etext = .

.glue_7         0x6003a7c8        0x0
 .glue_7        0x00000000        0x0 linker stubs

.glue_7t        0x6003a7c8        0x0
 .glue_7t       0x00000000        0x0 linker stubs

.vfp11_veneer   0x6003a7c8        0x0
 .vfp11_veneer  0x00000000        0x0 linker stubs

.v4_bx          0x6003a7c8        0x0
 .v4_bx         0x00000000        0x0 linker stubs

.iplt           0x6003a7c8        0x0
 .iplt          0x00000000        0x0 main.o

.data           0x60800000     0x3234 load address 0x6003a7c8
                0x60800000                _data = .
 *(vtable)
 *(.data*)
 .data.g_FrameNames
                0x60800000       0x28 _frame0.o
                0x60800000                g_FrameNames
 .data.Timer137
                0x60800028       0x30 _demarrage.o
                0x60800028                Timer137
 .data.Canvasdemarrage
                0x60800058       0x40 _demarrage.o
                0x60800058                Canvasdemarrage
 .data.Huit17   0x60800098       0x58 _PavetNum.o
                0x60800098                Huit17
 .data.Timer132
                0x608000f0       0x30 _PavetNum.o
                0x608000f0                Timer132
 .data.Deux23   0x60800120       0x58 _PavetNum.o
                0x60800120                Deux23
 .data.Label15  0x60800178       0x40 _PavetNum.o
                0x60800178                Label15
 .data.Un22     0x608001b8       0x58 _PavetNum.o
                0x608001b8                Un22
 .data.Neuf18   0x60800210       0x58 _PavetNum.o
                0x60800210                Neuf18
 .data.Sept16   0x60800268       0x58 _PavetNum.o
                0x60800268                Sept16
 .data.Zero25   0x608002c0       0x58 _PavetNum.o
                0x608002c0                Zero25
 .data.Supprime28
                0x60800318       0x58 _PavetNum.o
                0x60800318                Supprime28
 .data.Quatre19
                0x60800370       0x58 _PavetNum.o
                0x60800370                Quatre19
 .data.Trois24  0x608003c8       0x58 _PavetNum.o
                0x608003c8                Trois24
 .data.Cinq20   0x60800420       0x58 _PavetNum.o
                0x60800420                Cinq20
 .data.CanvasPavetNum
                0x60800478       0x40 _PavetNum.o
                0x60800478                CanvasPavetNum
 .data.Entrer26
                0x608004b8       0x58 _PavetNum.o
                0x608004b8                Entrer26
 .data.Point27  0x60800510       0x58 _PavetNum.o
                0x60800510                Point27
 .data.Six21    0x60800568       0x58 _PavetNum.o
                0x60800568                Six21
 .data.ImageArr_OK37
                0x608005c0        0x8 _ConfigModule.o
 .data.Timer140
                0x608005c8       0x30 _ConfigModule.o
                0x608005c8                Timer140
 .data.ZeroDixVolt39
                0x608005f8       0x48 _ConfigModule.o
                0x608005f8                ZeroDixVolt39
 .data.CanvasConfigModule
                0x60800640       0x40 _ConfigModule.o
                0x60800640                CanvasConfigModule
 .data.OK37     0x60800680       0x58 _ConfigModule.o
                0x60800680                OK37
 .data.adresseModule
                0x608006d8        0x4 _ConfigModule.o
                0x608006d8                adresseModule
 .data.Module6  0x608006dc       0x58 _ConfigModule.o
                0x608006dc                Module6
 .data.Adresse41
                0x60800734       0x58 _ConfigModule.o
                0x60800734                Adresse41
 .data.adresseAdresse
                0x6080078c        0x4 _ConfigModule.o
                0x6080078c                adresseAdresse
 .data.Impulsion40
                0x60800790       0x48 _ConfigModule.o
                0x60800790                Impulsion40
 .data.TextPushButton46
                0x608007d8       0x58 _ConfigModule.o
                0x608007d8                TextPushButton46
 .data.QuatreVingtMA38
                0x60800830       0x48 _ConfigModule.o
                0x60800830                QuatreVingtMA38
 .data.ObjectList53_50x30
                0x60800878        0x8 _ConfigCapteur.o
                0x60800878                ObjectList53_50x30
 .data.ZeroCapteur12
                0x60800880       0x58 _ConfigCapteur.o
                0x60800880                ZeroCapteur12
 .data.adresseMaxCapteur
                0x608008d8        0x4 _ConfigCapteur.o
                0x608008d8                adresseMaxCapteur
 .data.adresseVoie
                0x608008dc        0x4 _ConfigCapteur.o
                0x608008dc                adresseVoie
 .data.TextPushButton55
                0x608008e0       0x58 _ConfigCapteur.o
                0x608008e0                TextPushButton55
 .data.adresseUnite
                0x60800938        0x4 _ConfigCapteur.o
                0x60800938                adresseUnite
 .data.adresseCapteur
                0x6080093c        0x4 _ConfigCapteur.o
                0x6080093c                adresseCapteur
 .data.ImageArr_Etalonnage138
                0x60800940        0x8 _ConfigCapteur.o
 .data.MaxCapteur13
                0x60800948       0x58 _ConfigCapteur.o
                0x60800948                MaxCapteur13
 .data.Voie36   0x608009a0       0x58 _ConfigCapteur.o
                0x608009a0                Voie36
 .data.Unite35  0x608009f8       0x58 _ConfigCapteur.o
                0x608009f8                Unite35
 .data.CanvasConfigCapteur
                0x60800a50       0x40 _ConfigCapteur.o
                0x60800a50                CanvasConfigCapteur
 .data.Etalonnage138
                0x60800a90       0x58 _ConfigCapteur.o
                0x60800a90                Etalonnage138
 .data.ObjectList65_55x33
                0x60800ae8        0x8 _Etalonnage.o
                0x60800ae8                ObjectList65_55x33
 .data.ObjectList66_50x30
                0x60800af0        0x8 _Etalonnage.o
                0x60800af0                ObjectList66_50x30
 .data.TextPushButton163
                0x60800af8       0x58 _Etalonnage.o
                0x60800af8                TextPushButton163
 .data.ObjectList161_36x27
                0x60800b50        0x8 _Etalonnage.o
                0x60800b50                ObjectList161_36x27
 .data.CanvasEtalonnage
                0x60800b58       0x40 _Etalonnage.o
                0x60800b58                CanvasEtalonnage
 .data.adresseValMax
                0x60800b98        0x4 _Etalonnage.o
                0x60800b98                adresseValMax
 .data.TextPushButton108
                0x60800b9c       0x58 _Etalonnage.o
                0x60800b9c                TextPushButton108
 .data.CoefEtalonnage63
                0x60800bf4       0x58 _Etalonnage.o
                0x60800bf4                CoefEtalonnage63
 .data.Label62  0x60800c4c       0x40 _Etalonnage.o
                0x60800c4c                Label62
 .data.TextPushButton136
                0x60800c8c       0x58 _Etalonnage.o
                0x60800c8c                TextPushButton136
 .data.Couleur386
                0x60800ce4       0x40 _Seuillage.o
                0x60800ce4                Couleur386
 .data.S1Valeur74
                0x60800d24       0x58 _Seuillage.o
                0x60800d24                S1Valeur74
 .data.ObjectList72_50x30
                0x60800d7c        0x8 _Seuillage.o
                0x60800d7c                ObjectList72_50x30
 .data.logique58
                0x60800d84       0x48 _Seuillage.o
                0x60800d84                logique58
 .data.S1_Y_N78
                0x60800dcc       0x48 _Seuillage.o
                0x60800dcc                S1_Y_N78
 .data.adresseS2Val
                0x60800e14        0x4 _Seuillage.o
                0x60800e14                adresseS2Val
 .data.Couleur291
                0x60800e18       0x40 _Seuillage.o
                0x60800e18                Couleur291
 .data.Couleur176
                0x60800e58       0x40 _Seuillage.o
                0x60800e58                Couleur176
 .data.adresseS1Coul
                0x60800e98        0x4 _Seuillage.o
                0x60800e98                adresseS1Coul
 .data.paramAvances94
                0x60800e9c       0x58 _Seuillage.o
                0x60800e9c                paramAvances94
 .data.TextPushButton71
                0x60800ef4       0x58 _Seuillage.o
                0x60800ef4                TextPushButton71
 .data.adresseS3Activation
                0x60800f4c        0x4 _Seuillage.o
                0x60800f4c                adresseS3Activation
 .data.Timer52  0x60800f50       0x30 _Seuillage.o
                0x60800f50                Timer52
 .data.Couleur481
                0x60800f80       0x40 _Seuillage.o
                0x60800f80                Couleur481
 .data.S3Valeur84
                0x60800fc0       0x58 _Seuillage.o
                0x60800fc0                S3Valeur84
 .data.adresseS3Val
                0x60801018        0x4 _Seuillage.o
                0x60801018                adresseS3Val
 .data.S4Valeur89
                0x6080101c       0x58 _Seuillage.o
                0x6080101c                S4Valeur89
 .data.adresseLogique
                0x60801074        0x4 _Seuillage.o
                0x60801074                adresseLogique
 .data.S1Couleur77
                0x60801078       0x58 _Seuillage.o
                0x60801078                S1Couleur77
 .data.CanvasSeuillage
                0x608010d0       0x40 _Seuillage.o
                0x608010d0                CanvasSeuillage
 .data.adresseS2Coul
                0x60801110        0x4 _Seuillage.o
                0x60801110                adresseS2Coul
 .data.S2Valeur79
                0x60801114       0x58 _Seuillage.o
                0x60801114                S2Valeur79
 .data.adresseS2Activation
                0x6080116c        0x4 _Seuillage.o
                0x6080116c                adresseS2Activation
 .data.S4_Y_N93
                0x60801170       0x48 _Seuillage.o
                0x60801170                S4_Y_N93
 .data.adresseS4Val
                0x608011b8        0x4 _Seuillage.o
                0x608011b8                adresseS4Val
 .data.S3Couleur87
                0x608011bc       0x58 _Seuillage.o
                0x608011bc                S3Couleur87
 .data.adresseS3Coul
                0x60801214        0x4 _Seuillage.o
                0x60801214                adresseS3Coul
 .data.S2_Y_N83
                0x60801218       0x48 _Seuillage.o
                0x60801218                S2_Y_N83
 .data.S2Couleur82
                0x60801260       0x58 _Seuillage.o
                0x60801260                S2Couleur82
 .data.TextPushButton50
                0x608012b8       0x58 _Seuillage.o
                0x608012b8                TextPushButton50
 .data.adresseS1Activation
                0x60801310        0x4 _Seuillage.o
                0x60801310                adresseS1Activation
 .data.S3_Y_N88
                0x60801314       0x48 _Seuillage.o
                0x60801314                S3_Y_N88
 .data.adresseS4Activation
                0x6080135c        0x4 _Seuillage.o
                0x6080135c                adresseS4Activation
 .data.adresseS4Coul
                0x60801360        0x4 _Seuillage.o
                0x60801360                adresseS4Coul
 .data.adresseS1Val
                0x60801364        0x4 _Seuillage.o
                0x60801364                adresseS1Val
 .data.S4Couleur92
                0x60801368       0x58 _Seuillage.o
                0x60801368                S4Couleur92
 .data.adresseVoie1
                0x608013c0        0x4 _SeuilUn.o
                0x608013c0                adresseVoie1
 .data.adresseVoie2
                0x608013c4        0x4 _SeuilUn.o
                0x608013c4                adresseVoie2
 .data.adresseVoie3
                0x608013c8        0x4 _SeuilUn.o
                0x608013c8                adresseVoie3
 .data.adresseVoie4
                0x608013cc        0x4 _SeuilUn.o
                0x608013cc                adresseVoie4
 .data.adresseRetard2
                0x608013d0        0x4 _SeuilUn.o
                0x608013d0                adresseRetard2
 .data.adresseRetard4
                0x608013d4        0x4 _SeuilUn.o
                0x608013d4                adresseRetard4
 .data.hysteresis104
                0x608013d8       0x58 _SeuilUn.o
                0x608013d8                hysteresis104
 .data.CanvasSeuilUn
                0x60801430       0x40 _SeuilUn.o
                0x60801430                CanvasSeuilUn
 .data.adressePos
                0x60801470        0x4 _SeuilUn.o
                0x60801470                adressePos
 .data.Next107  0x60801474       0x58 _SeuilUn.o
                0x60801474                Next107
 .data.NO102    0x608014cc       0x48 _SeuilUn.o
                0x608014cc                NO102
 .data.adresseRetard3
                0x60801514        0x4 _SeuilUn.o
                0x60801514                adresseRetard3
 .data.Retard105
                0x60801518       0x58 _SeuilUn.o
                0x60801518                Retard105
 .data.adresseAdresse2
                0x60801570        0x4 _SeuilUn.o
                0x60801570                adresseAdresse2
 .data.adresseHysteresis2
                0x60801574        0x4 _SeuilUn.o
                0x60801574                adresseHysteresis2
 .data.ObjectList155_44x33
                0x60801578        0x8 _SeuilUn.o
                0x60801578                ObjectList155_44x33
 .data.Voie106  0x60801580       0x58 _SeuilUn.o
                0x60801580                Voie106
 .data.adresseAdresse1
                0x608015d8        0x4 _SeuilUn.o
                0x608015d8                adresseAdresse1
 .data.adresseAdresse3
                0x608015dc        0x4 _SeuilUn.o
                0x608015dc                adresseAdresse3
 .data.adresseAdresse4
                0x608015e0        0x4 _SeuilUn.o
                0x608015e0                adresseAdresse4
 .data.ObjectList60_45x31
                0x608015e4        0x8 _SeuilUn.o
                0x608015e4                ObjectList60_45x31
 .data.pos      0x608015ec        0x4 _SeuilUn.o
                0x608015ec                pos
 .data.adresseHysteresis1
                0x608015f0        0x4 _SeuilUn.o
                0x608015f0                adresseHysteresis1
 .data.TextPushButton153
                0x608015f4       0x58 _SeuilUn.o
                0x608015f4                TextPushButton153
 .data.adresseHysteresis3
                0x6080164c        0x4 _SeuilUn.o
                0x6080164c                adresseHysteresis3
 .data.adresseHysteresis4
                0x60801650        0x4 _SeuilUn.o
                0x60801650                adresseHysteresis4
 .data.adresseRetard1
                0x60801654        0x4 _SeuilUn.o
                0x60801654                adresseRetard1
 .data.adresseTypeRelais2
                0x60801658        0x4 _SeuilUn.o
                0x60801658                adresseTypeRelais2
 .data.adresse103
                0x6080165c       0x58 _SeuilUn.o
                0x6080165c                adresse103
 .data.ObjectList155_50x30
                0x608016b4        0x8 _SeuilUn.o
                0x608016b4                ObjectList155_50x30
 .data.ImageArr_Valider111
                0x608016bc        0x8 _SeuilUn.o
 .data.Valider111
                0x608016c4       0x58 _SeuilUn.o
                0x608016c4                Valider111
 .data.Prev164  0x6080171c       0x58 _SeuilUn.o
                0x6080171c                Prev164
 .data.Relai96  0x60801774       0x40 _SeuilUn.o
                0x60801774                Relai96
 .data.adresseTypeRelais1
                0x608017b4        0x4 _SeuilUn.o
                0x608017b4                adresseTypeRelais1
 .data.Timer110
                0x608017b8       0x30 _SeuilUn.o
                0x608017b8                Timer110
 .data.adresseTypeRelais3
                0x608017e8        0x4 _SeuilUn.o
                0x608017e8                adresseTypeRelais3
 .data.adresseTypeRelais4
                0x608017ec        0x4 _SeuilUn.o
                0x608017ec                adresseTypeRelais4
 .data.ConfigC117
                0x608017f0       0x58 _Affichage.o
                0x608017f0                ConfigC117
 .data.Label118
                0x60801848       0x40 _Affichage.o
                0x60801848                Label118
 .data.Label119
                0x60801888       0x40 _Affichage.o
                0x60801888                Label119
 .data.ImageArr_ConfigE115
                0x608018c8        0x8 _Affichage.o
 .data.ImageArr_ConfigS116
                0x608018d0        0x8 _Affichage.o
 .data.ConfigM113
                0x608018d8       0x58 _Affichage.o
                0x608018d8                ConfigM113
 .data.ImageArr_ConfigC117
                0x60801930        0x8 _Affichage.o
 .data.CanvasAffichage
                0x60801938       0x40 _Affichage.o
                0x60801938                CanvasAffichage
 .data.ImageArr_ConfigM113
                0x60801978        0x8 _Affichage.o
 .data.ConfigS116
                0x60801980       0x58 _Affichage.o
                0x60801980                ConfigS116
 .data.ConfigE115
                0x608019d8       0x58 _Affichage.o
                0x608019d8                ConfigE115
 .data.TextPushButton235
                0x60801a30       0x58 _Clavier.o
                0x60801a30                TextPushButton235
 .data.TextPushButton236
                0x60801a88       0x58 _Clavier.o
                0x60801a88                TextPushButton236
 .data.TextPushButton237
                0x60801ae0       0x58 _Clavier.o
                0x60801ae0                TextPushButton237
 .data.TextPushButton238
                0x60801b38       0x58 _Clavier.o
                0x60801b38                TextPushButton238
 .data.TextPushButton252
                0x60801b90       0x58 _Clavier.o
                0x60801b90                TextPushButton252
 .data.TextPushButton253
                0x60801be8       0x58 _Clavier.o
                0x60801be8                TextPushButton253
 .data.TextPushButton254
                0x60801c40       0x58 _Clavier.o
                0x60801c40                TextPushButton254
 .data.TextPushButton255
                0x60801c98       0x58 _Clavier.o
                0x60801c98                TextPushButton255
 .data.TextPushButton256
                0x60801cf0       0x58 _Clavier.o
                0x60801cf0                TextPushButton256
 .data.TextPushButton257
                0x60801d48       0x58 _Clavier.o
                0x60801d48                TextPushButton257
 .data.TextPushButton258
                0x60801da0       0x58 _Clavier.o
                0x60801da0                TextPushButton258
 .data.TextPushButton242
                0x60801df8       0x58 _Clavier.o
                0x60801df8                TextPushButton242
 .data.CanvasClavier
                0x60801e50       0x40 _Clavier.o
                0x60801e50                CanvasClavier
 .data.TextPushButton248
                0x60801e90       0x58 _Clavier.o
                0x60801e90                TextPushButton248
 .data.TextPushButton249
                0x60801ee8       0x58 _Clavier.o
                0x60801ee8                TextPushButton249
 .data.TextPushButton224
                0x60801f40       0x58 _Clavier.o
                0x60801f40                TextPushButton224
 .data.TextPushButton225
                0x60801f98       0x58 _Clavier.o
                0x60801f98                TextPushButton225
 .data.TextPushButton226
                0x60801ff0       0x58 _Clavier.o
                0x60801ff0                TextPushButton226
 .data.Timer292
                0x60802048       0x30 _Clavier.o
                0x60802048                Timer292
 .data.TextPushButton228
                0x60802078       0x58 _Clavier.o
                0x60802078                TextPushButton228
 .data.TextPushButton229
                0x608020d0       0x58 _Clavier.o
                0x608020d0                TextPushButton229
 .data.TextPushButton243
                0x60802128       0x58 _Clavier.o
                0x60802128                TextPushButton243
 .data.TextPushButton244
                0x60802180       0x58 _Clavier.o
                0x60802180                TextPushButton244
 .data.TextPushButton245
                0x608021d8       0x58 _Clavier.o
                0x608021d8                TextPushButton245
 .data.TextPushButton246
                0x60802230       0x58 _Clavier.o
                0x60802230                TextPushButton246
 .data.TextPushButton247
                0x60802288       0x58 _Clavier.o
                0x60802288                TextPushButton247
 .data.TextPushButton261
                0x608022e0       0x58 _Clavier.o
                0x608022e0                TextPushButton261
 .data.TextPushButton262
                0x60802338       0x58 _Clavier.o
                0x60802338                TextPushButton262
 .data.TextPushButton265
                0x60802390       0x58 _Clavier.o
                0x60802390                TextPushButton265
 .data.TextPushButton282
                0x608023e8       0x58 _Clavier.o
                0x608023e8                TextPushButton282
 .data.Un250    0x60802440       0x58 _Clavier.o
                0x60802440                Un250
 .data.TextPushButton239
                0x60802498       0x58 _Clavier.o
                0x60802498                TextPushButton239
 .data.TextPushButton227
                0x608024f0       0x58 _Clavier.o
                0x608024f0                TextPushButton227
 .data.TextPushButton240
                0x60802548       0x58 _Clavier.o
                0x60802548                TextPushButton240
 .data.Label223
                0x608025a0       0x40 _Clavier.o
                0x608025a0                Label223
 .data.TextPushButton241
                0x608025e0       0x58 _Clavier.o
                0x608025e0                TextPushButton241
 .data.TextPushButton251
                0x60802638       0x58 _Clavier.o
                0x60802638                TextPushButton251
 .data.TextPushButton230
                0x60802690       0x58 _Clavier.o
                0x60802690                TextPushButton230
 .data.TextPushButton231
                0x608026e8       0x58 _Clavier.o
                0x608026e8                TextPushButton231
 .data.TextPushButton232
                0x60802740       0x58 _Clavier.o
                0x60802740                TextPushButton232
 .data.TextPushButton233
                0x60802798       0x58 _Clavier.o
                0x60802798                TextPushButton233
 .data.TextPushButton234
                0x608027f0       0x58 _Clavier.o
                0x608027f0                TextPushButton234
 .data.Label121
                0x60802848       0x40 _Alerte.o
                0x60802848                Label121
 .data.CanvasAlerte
                0x60802888       0x40 _Alerte.o
                0x60802888                CanvasAlerte
 .data.TextPushButton122
                0x608028c8       0x58 _Alerte.o
                0x608028c8                TextPushButton122
 .data.tmp      0x60802920       0x10 _dict.o
                0x60802920                tmp
 .data.NextF    0x60802930       0x10 _dict.o
                0x60802930                NextF
 .data.One      0x60802940       0x10 _dict.o
                0x60802940                One
 .data.GrImageDraw
                0x60802950        0x4 c:/ICPDAS/HMIWorks_Standard/lib/libgr.a(image.o)
                0x60802950                GrImageDraw
 .data.GrRectFill
                0x60802954        0x4 c:/ICPDAS/HMIWorks_Standard/lib/libgr.a(rectangle.o)
                0x60802954                GrRectFill
 .data.g_sRoot  0x60802958       0x20 c:/ICPDAS/HMIWorks_Standard/lib/libgr.a(widget.o)
                0x60802958                g_sRoot
 .data.WidgetMessageQueueProcessEx
                0x60802978        0x4 c:/ICPDAS/HMIWorks_Standard/lib/libgr.a(widget.o)
                0x60802978                WidgetMessageQueueProcessEx
 .data.WidgetMutexInit
                0x6080297c        0x4 c:/ICPDAS/HMIWorks_Standard/lib/libgr.a(widget.o)
                0x6080297c                WidgetMutexInit
 .data.hmi_TurnTouchBeep
                0x60802980        0x4 c:/ICPDAS/HMIWorks_Standard/lib/libgr.a(widget.o)
                0x60802980                hmi_TurnTouchBeep
 .data.WidgetMessageSendPostOrder
                0x60802984        0x4 c:/ICPDAS/HMIWorks_Standard/lib/libgr.a(widget.o)
                0x60802984                WidgetMessageSendPostOrder
 .data.WidgetMessageQueueClear
                0x60802988        0x4 c:/ICPDAS/HMIWorks_Standard/lib/libgr.a(widget.o)
                0x60802988                WidgetMessageQueueClear
 .data.WidgetMutexGet
                0x6080298c        0x4 c:/ICPDAS/HMIWorks_Standard/lib/libgr.a(widget.o)
                0x6080298c                WidgetMutexGet
 .data.WidgetMessageQueueAdd
                0x60802990        0x4 c:/ICPDAS/HMIWorks_Standard/lib/libgr.a(widget.o)
                0x60802990                WidgetMessageQueueAdd
 .data.WidgetMutexPut
                0x60802994        0x4 c:/ICPDAS/HMIWorks_Standard/lib/libgr.a(widget.o)
                0x60802994                WidgetMutexPut
 .data.WidgetRemove
                0x60802998        0x4 c:/ICPDAS/HMIWorks_Standard/lib/libgr.a(widget.o)
                0x60802998                WidgetRemove
 .data.WidgetAdd
                0x6080299c        0x4 c:/ICPDAS/HMIWorks_Standard/lib/libgr.a(widget.o)
                0x6080299c                WidgetAdd
 .data.WidgetMessageQueueProcess
                0x608029a0        0x4 c:/ICPDAS/HMIWorks_Standard/lib/libgr.a(widget.o)
                0x608029a0                WidgetMessageQueueProcess
 .data.WidgetMessageSendPreOrder
                0x608029a4        0x4 c:/ICPDAS/HMIWorks_Standard/lib/libgr.a(widget.o)
                0x608029a4                WidgetMessageSendPreOrder
 .data.WidgetPointerMessage
                0x608029a8        0x4 c:/ICPDAS/HMIWorks_Standard/lib/libgr.a(widget.o)
                0x608029a8                WidgetPointerMessage
 .data.RegisterNullWidgetMsgProc
                0x608029ac        0x4 c:/ICPDAS/HMIWorks_Standard/lib/libgr.a(widget.o)
                0x608029ac                RegisterNullWidgetMsgProc
 .data.g_pusKeyClick.5305
                0x608029b0        0x8 c:/ICPDAS/HMIWorks_Standard/lib/VPD-133.a(beep.o)
 .data.__ctype_ptr__
                0x608029b8        0x4 c:/icpdas/hmiworks_standard/gcc/bin/../lib/gcc/arm-none-eabi/4.8.3/../../../../arm-none-eabi/lib/armv7-m/libc.a(lib_a-ctype_.o)
                0x608029b8                __ctype_ptr__
 .data.__malloc_av_
                0x608029bc      0x408 c:/icpdas/hmiworks_standard/gcc/bin/../lib/gcc/arm-none-eabi/4.8.3/../../../../arm-none-eabi/lib/armv7-m/libc.a(lib_a-mallocr.o)
                0x608029bc                __malloc_av_
 .data.__malloc_trim_threshold
                0x60802dc4        0x4 c:/icpdas/hmiworks_standard/gcc/bin/../lib/gcc/arm-none-eabi/4.8.3/../../../../arm-none-eabi/lib/armv7-m/libc.a(lib_a-mallocr.o)
                0x60802dc4                __malloc_trim_threshold
 .data.__malloc_sbrk_base
                0x60802dc8        0x4 c:/icpdas/hmiworks_standard/gcc/bin/../lib/gcc/arm-none-eabi/4.8.3/../../../../arm-none-eabi/lib/armv7-m/libc.a(lib_a-mallocr.o)
                0x60802dc8                __malloc_sbrk_base
 *fill*         0x60802dcc        0x4 
 .data.impure_data
                0x60802dd0      0x428 c:/icpdas/hmiworks_standard/gcc/bin/../lib/gcc/arm-none-eabi/4.8.3/../../../../arm-none-eabi/lib/armv7-m/libc.a(lib_a-impure.o)
 .data._impure_ptr
                0x608031f8        0x4 c:/icpdas/hmiworks_standard/gcc/bin/../lib/gcc/arm-none-eabi/4.8.3/../../../../arm-none-eabi/lib/armv7-m/libc.a(lib_a-impure.o)
                0x608031f8                _impure_ptr
 .data.lconv    0x608031fc       0x38 c:/icpdas/hmiworks_standard/gcc/bin/../lib/gcc/arm-none-eabi/4.8.3/../../../../arm-none-eabi/lib/armv7-m/libc.a(lib_a-locale.o)
                0x60803234                _edata = .

.igot.plt       0x60803234        0x0 load address 0x6003d9fc
 .igot.plt      0x00000000        0x0 main.o

.ARM.exidx      0x60803234        0x8 load address 0x6003d9fc
                0x60803234                __exidx_start = .
 *(.ARM.exidx* .gnu.linkonce.armexidx.*)
 .ARM.exidx     0x60803234        0x8 c:/icpdas/hmiworks_standard/gcc/bin/../lib/gcc/arm-none-eabi/4.8.3/armv7-m/libgcc.a(_divdi3.o)
 .ARM.exidx     0x6080323c        0x0 c:/icpdas/hmiworks_standard/gcc/bin/../lib/gcc/arm-none-eabi/4.8.3/armv7-m/libgcc.a(_udivdi3.o)
                                  0x8 (size before relaxing)
                0x6080323c                __exidx_end = .

.rel.dyn        0x6080323c        0x0 load address 0x6003da04
 .rel.iplt      0x00000000        0x0 main.o

.bss            0x6080323c     0x16b4 load address 0x6003da04
                0x6080323c                _bss = .
 *(.bss*)
 .bss.g_ulTickTmrEvtTrig
                0x6080323c        0x4 _frame0.o
                0x6080323c                g_ulTickTmrEvtTrig
 .bss.g_hmi_CurrentFrame
                0x60803240        0x4 _frame0.o
                0x60803240                g_hmi_CurrentFrame
 .bss.g_TimerTicksCount
                0x60803244        0x4 _frame0.o
                0x60803244                g_TimerTicksCount
 .bss.s_hmi_tcp_inited
                0x60803248        0x4 _frame0.o
 .bss.globalContext
                0x6080324c       0x1c _demarrage.o
 .bss.str1.9263
                0x60803268        0x4 _PavetNum.o
 .bss.globalContext
                0x6080326c       0x1c _PavetNum.o
 .bss.tail      0x60803288        0x4 _PavetNum.o
                0x60803288                tail
 .bss.p.9265    0x6080328c        0x4 _PavetNum.o
 .bss.strll.9264
                0x60803290       0x10 _PavetNum.o
 .bss.adresseTypeCapteur
                0x608032a0        0x4 _ConfigModule.o
                0x608032a0                adresseTypeCapteur
 .bss.tabM.9220
                0x608032a4        0x5 _ConfigModule.o
 *fill*         0x608032a9        0x3 
 .bss.typeCapteur
                0x608032ac        0x4 _ConfigModule.o
 .bss.tab.9218  0x608032b0        0x5 _ConfigModule.o
 *fill*         0x608032b5        0x3 
 .bss.globalContext
                0x608032b8       0x1c _ConfigModule.o
 .bss.max       0x608032d4        0x4 _ConfigCapteur.o
                0x608032d4                max
 .bss.tabV.9197
                0x608032d8        0x5 _ConfigCapteur.o
 .bss.tabM.9195
                0x608032dd        0x5 _ConfigCapteur.o
 .bss.iValU.9199
                0x608032e2       0x32 _ConfigCapteur.o
 .bss.zero      0x60803314        0x4 _ConfigCapteur.o
                0x60803314                zero
 .bss.voie      0x60803318        0x4 _ConfigCapteur.o
                0x60803318                voie
 .bss.globalContext
                0x6080331c       0x1c _ConfigCapteur.o
 .bss.tab.9193  0x60803338        0x5 _ConfigCapteur.o
 .bss.tabE.9185
                0x6080333d        0x5 _Etalonnage.o
 *fill*         0x60803342        0x2 
 .bss.globalContext
                0x60803344       0x1c _Etalonnage.o
 .bss.tabS2.9232
                0x60803360        0x5 _Seuillage.o
 *fill*         0x60803365        0x3 
 .bss.d.9267    0x60803368        0x4 _Seuillage.o
 .bss.b.9251    0x6080336c        0x4 _Seuillage.o
 .bss.tabS4.9238
                0x60803370        0x5 _Seuillage.o
 .bss.tabS3.9236
                0x60803375        0x5 _Seuillage.o
 *fill*         0x6080337a        0x2 
 .bss.a.9243    0x6080337c        0x4 _Seuillage.o
 .bss.globalContext
                0x60803380       0x1c _Seuillage.o
 .bss.c.9259    0x6080339c        0x4 _Seuillage.o
 .bss.tabS1.9230
                0x608033a0        0x5 _Seuillage.o
 .bss.tabH.9237
                0x608033a5        0x5 _SeuilUn.o
 .bss.tabP.9227
                0x608033aa        0x5 _SeuilUn.o
 .bss.tmp.9267  0x608033af        0x3 _SeuilUn.o
 .bss.tabR.9230
                0x608033b2        0x5 _SeuilUn.o
 .bss.tabRE.9244
                0x608033b7        0x5 _SeuilUn.o
 .bss.tabVO.9251
                0x608033bc        0x5 _SeuilUn.o
 .bss.tmp.9273  0x608033c1        0x3 _SeuilUn.o
 .bss.globalContext
                0x608033c4       0x1c _SeuilUn.o
 .bss.globalContext
                0x608033e0       0x1c _Affichage.o
 .bss.str1.9194
                0x608033fc        0x4 _Clavier.o
 .bss.globalContext
                0x60803400       0x1c _Clavier.o
 .bss.strll.9195
                0x6080341c       0x10 _Clavier.o
 .bss.globalContext
                0x6080342c       0x1c _Alerte.o
 .bss.table_init_flag
                0x60803448        0x4 _dict.o
                0x60803448                table_init_flag
 .bss.pulStack  0x6080344c     0x1000 c:/ICPDAS/HMIWorks_Standard/lib/VPD-133/startup_gcc.o
 .bss.g_pucDictionary
                0x6080444c       0x20 c:/ICPDAS/HMIWorks_Standard/lib/libgr.a(image.o)
 .bss.g_ucMQMutex
                0x6080446c        0x1 c:/ICPDAS/HMIWorks_Standard/lib/libgr.a(widget.o)
 *fill*         0x6080446d        0x3 
 .bss.g_pPointerWidget
                0x60804470        0x4 c:/ICPDAS/HMIWorks_Standard/lib/libgr.a(widget.o)
 .bss.g_ulToCheckIO
                0x60804474        0x4 c:/ICPDAS/HMIWorks_Standard/lib/libgr.a(widget.o)
 .bss.pfnNullWidgetMsgProc
                0x60804478        0x4 c:/ICPDAS/HMIWorks_Standard/lib/libgr.a(widget.o)
 .bss.g_ulMQRead
                0x6080447c        0x4 c:/ICPDAS/HMIWorks_Standard/lib/libgr.a(widget.o)
 .bss.g_ulMQWrite
                0x60804480        0x4 c:/ICPDAS/HMIWorks_Standard/lib/libgr.a(widget.o)
 .bss.g_bTouchBeep
                0x60804484        0x4 c:/ICPDAS/HMIWorks_Standard/lib/libgr.a(widget.o)
                0x60804484                g_bTouchBeep
 .bss.g_pMQ     0x60804488      0x280 c:/ICPDAS/HMIWorks_Standard/lib/libgr.a(widget.o)
 .bss.pucCurrMACAddr
                0x60804708        0x6 c:/ICPDAS/HMIWorks_Standard/lib/VPD-133.a(hmi_Init.o)
 *fill*         0x6080470e        0x2 
 .bss.__malloc_max_total_mem
                0x60804710        0x4 c:/icpdas/hmiworks_standard/gcc/bin/../lib/gcc/arm-none-eabi/4.8.3/../../../../arm-none-eabi/lib/armv7-m/libc.a(lib_a-mallocr.o)
                0x60804710                __malloc_max_total_mem
 .bss.__malloc_max_sbrked_mem
                0x60804714        0x4 c:/icpdas/hmiworks_standard/gcc/bin/../lib/gcc/arm-none-eabi/4.8.3/../../../../arm-none-eabi/lib/armv7-m/libc.a(lib_a-mallocr.o)
                0x60804714                __malloc_max_sbrked_mem
 .bss.__malloc_top_pad
                0x60804718        0x4 c:/icpdas/hmiworks_standard/gcc/bin/../lib/gcc/arm-none-eabi/4.8.3/../../../../arm-none-eabi/lib/armv7-m/libc.a(lib_a-mallocr.o)
                0x60804718                __malloc_top_pad
 .bss.__malloc_current_mallinfo
                0x6080471c       0x28 c:/icpdas/hmiworks_standard/gcc/bin/../lib/gcc/arm-none-eabi/4.8.3/../../../../arm-none-eabi/lib/armv7-m/libc.a(lib_a-mallocr.o)
                0x6080471c                __malloc_current_mallinfo
 .bss.heap      0x60804744        0x4 c:/icpdas/hmiworks_standard/gcc/bin/../lib/gcc/arm-none-eabi/4.8.3/../../../../arm-none-eabi/lib/armv7-m/libc.a(tpd_syscalls.o)
 *(COMMON)
 COMMON         0x60804748        0x8 _ConfigModule.o
                0x60804748                module
                0x6080474c                addr
 COMMON         0x60804750        0xc _dict.o
                0x60804750                __var_table
 COMMON         0x6080475c        0x4 c:/ICPDAS/HMIWorks_Standard/lib/commonlo.a(hmi.o)
                0x6080475c                hmi_DrawImage
 COMMON         0x60804760       0x28 c:/ICPDAS/HMIWorks_Standard/lib/commonlo.a(widget_init.o)
                0x60804760                g_sDisplayDriverROM
 COMMON         0x60804788       0x1c c:/ICPDAS/HMIWorks_Standard/lib/VPD-133.a(hmi_Init.o)
                0x60804788                hmi_UserFlashRead
                0x6080478c                hmi_UserFlashWrite
                0x60804790                RegisterIOScan
                0x60804794                hmi_LCDIdleSetCallback
                0x60804798                hmi_UserFlashReadEx
                0x6080479c                hmi_UserFlashWriteEx
                0x608047a0                hmi_UserFlashErase
 COMMON         0x608047a4       0x60 c:/ICPDAS/HMIWorks_Standard/lib/VPD-133.a(hmi_tcp.o)
                0x608047a4                lwIPLocalIPAddrGet
                0x608047a8                hmi_TCPAcceptedBy
                0x608047ac                hmi_TCPAbandon
                0x608047b0                hmi_TCPReadEx
                0x608047b4                LocatorMACAddrSet
                0x608047b8                hmi_TCPForceError
                0x608047bc                hmi_TCPTimeoutBeep
                0x608047c0                hmi_TCPWrite
                0x608047c4                LocatorAppTitleSet
                0x608047c8                lwIPInit
                0x608047cc                hmi_TCPState
                0x608047d0                LocatorInit
                0x608047d4                hmi_TCPInit
                0x608047d8                hmi_TCPGetRemotePort
                0x608047dc                hmi_TCPNew
                0x608047e0                hmi_TCPGetLocalPort
                0x608047e4                hmi_IPToStr
                0x608047e8                hmi_TCPSendCmdEx
                0x608047ec                hmi_TCPClose
                0x608047f0                hmi_TCPOutput
                0x608047f4                hmi_TCPListen
                0x608047f8                hmi_StrToIP
                0x608047fc                hmi_TCPGetRemoteIP
                0x60804800                hmi_TCPOpen
 COMMON         0x60804804       0x40 c:/ICPDAS/HMIWorks_Standard/lib/VPD-133.a(hmi_uart.o)
                0x60804804                uart_BinWrite
                0x60804808                uart_Open
                0x6080480c                uart_Send
                0x60804810                uart_BinRead
                0x60804814                uart_Read
                0x60804818                uart_GetRxDataCount
                0x6080481c                uart_BinSendCmd
                0x60804820                uart_SendCmd
                0x60804824                uart_BinRecv
                0x60804828                uart_EnableCheckSum
                0x6080482c                uart_Recv
                0x60804830                uart_Close
                0x60804834                uart_Write
                0x60804838                uart_SetTerminator
                0x6080483c                uart_SetTimeout
                0x60804840                uart_BinSend
 COMMON         0x60804844       0x5c c:/ICPDAS/HMIWorks_Standard/lib/VPD-133.a(dcon_io.o)
                0x60804844                dcon_ClearDIOLatch
                0x60804848                dcon_ReadAIAllHex
                0x6080484c                dcon_ClearCNT
                0x60804850                dcon_ClearDILatch
                0x60804854                dcon_ReadDIOLatch
                0x60804858                dcon_ReadDILatch
                0x6080485c                dcon_ReadCNT
                0x60804860                dcon_GetLastError
                0x60804864                dcon_WriteDOBit
                0x60804868                dcon_ClearDICNT
                0x6080486c                dcon_ReadAIAll
                0x60804870                dcon_ReadCNTOverflow
                0x60804874                dcon_ReadAO
                0x60804878                dcon_ReadAI
                0x6080487c                dcon_ClearLastError
                0x60804880                dcon_ReadDIO
                0x60804884                dcon_ReadDO
                0x60804888                dcon_ReadDI
                0x6080488c                dcon_SetLastError
                0x60804890                dcon_WriteAO
                0x60804894                dcon_ReadAIHex
                0x60804898                dcon_ReadDICNT
                0x6080489c                dcon_WriteDO
 COMMON         0x608048a0       0x24 c:/ICPDAS/HMIWorks_Standard/lib/VPD-133.a(mbrtu.o)
                0x608048a0                mrs_RegisterSlave
                0x608048a4                mrm_SetSilentInterval
                0x608048a8                mrm_ReadAIO
                0x608048ac                mrm_WriteDO
                0x608048b0                mrm_ReadDIO
                0x608048b4                mrs_ProcessCmd
                0x608048b8                mrs_GetAIOBuf
                0x608048bc                mrs_GetDIOBuf
                0x608048c0                mrm_WriteAO
 COMMON         0x608048c4       0x2c c:/ICPDAS/HMIWorks_Standard/lib/VPD-133.a(mbtcp.o)
                0x608048c4                mtm_WriteDO
                0x608048c8                mts_GetAIOBuf
                0x608048cc                mtm_Unregister
                0x608048d0                mtm_WriteAO
                0x608048d4                mts_ProcessCmd
                0x608048d8                mts_RegisterSlave
                0x608048dc                mtm_RegisterTCP
                0x608048e0                mtm_Register
                0x608048e4                mts_GetDIOBuf
                0x608048e8                mtm_ReadAIO
                0x608048ec                mtm_ReadDIO
                0x608048f0                _ebss = .
                0x608048f0                . = ALIGN (0x8)
                0x608048f0                _end = .
                0x608048f0                PROVIDE (_HEAP_START, _end)
                0x61000000                PROVIDE (_HEAP_END, ALIGN ((ORIGIN (SRAM) + 0x800000), 0x8))
LOAD main.o
LOAD _frame0.o
LOAD _demarrage.o
LOAD _PavetNum.o
LOAD _ConfigModule.o
LOAD _ConfigCapteur.o
LOAD _Etalonnage.o
LOAD _Seuillage.o
LOAD _SeuilUn.o
LOAD _Affichage.o
LOAD _Clavier.o
LOAD _Alerte.o
LOAD _dict.o
LOAD ladder.o
LOAD imagedata.o
LOAD ladder_test_ldx.o
LOAD c:/ICPDAS/HMIWorks_Standard/lib/VPD-133/startup_gcc.o
LOAD c:/ICPDAS/HMIWorks_Standard/lib/commonlo.a
LOAD c:/ICPDAS/HMIWorks_Standard/lib/libgr.a
LOAD c:/ICPDAS/HMIWorks_Standard/lib/fonts.a
LOAD c:/ICPDAS/HMIWorks_Standard/lib/font_icpdas_cs_cyrillic.a
LOAD c:/ICPDAS/HMIWorks_Standard/lib/font_icpdas_cs_french.a
LOAD c:/ICPDAS/HMIWorks_Standard/lib/font_icpdas_cs_latin1s.a
LOAD c:/ICPDAS/HMIWorks_Standard/lib/font_icpdas_rc_cyrillic.a
LOAD c:/ICPDAS/HMIWorks_Standard/lib/font_icpdas_rc_french.a
LOAD c:/ICPDAS/HMIWorks_Standard/lib/font_icpdas_rc_latin1s.a
LOAD c:/ICPDAS/HMIWorks_Standard/lib/VPD-133.a
LOAD c:/ICPDAS/HMIWorks_Standard/lib/libdriver.a
LOAD c:/icpdas/hmiworks_standard/gcc/bin/../lib/gcc/arm-none-eabi/4.8.3/../../../../arm-none-eabi/lib/armv7-m/libm.a
LOAD c:/icpdas/hmiworks_standard/gcc/bin/../lib/gcc/arm-none-eabi/4.8.3/../../../../arm-none-eabi/lib/armv7-m/libc.a
LOAD c:/icpdas/hmiworks_standard/gcc/bin/../lib/gcc/arm-none-eabi/4.8.3/armv7-m/libgcc.a
OUTPUT(test.axf elf32-littlearm)

.comment        0x00000000       0x92
 .comment       0x00000000       0x70 main.o
                                 0x71 (size before relaxing)
 .comment       0x00000000       0x71 _frame0.o
 .comment       0x00000000       0x71 _demarrage.o
 .comment       0x00000000       0x71 _PavetNum.o
 .comment       0x00000000       0x71 _ConfigModule.o
 .comment       0x00000000       0x71 _ConfigCapteur.o
 .comment       0x00000000       0x71 _Etalonnage.o
 .comment       0x00000000       0x71 _Seuillage.o
 .comment       0x00000000       0x71 _SeuilUn.o
 .comment       0x00000000       0x71 _Affichage.o
 .comment       0x00000000       0x71 _Clavier.o
 .comment       0x00000000       0x71 _Alerte.o
 .comment       0x00000000       0x71 _dict.o
 .comment       0x00000000       0x71 ladder.o
 .comment       0x00000000       0x71 imagedata.o
 .comment       0x00000000       0x71 ladder_test_ldx.o
 .comment       0x00000000       0x71 c:/ICPDAS/HMIWorks_Standard/lib/VPD-133/startup_gcc.o
 .comment       0x00000000       0x71 c:/ICPDAS/HMIWorks_Standard/lib/commonlo.a(hmi.o)
 .comment       0x00000000       0x71 c:/ICPDAS/HMIWorks_Standard/lib/commonlo.a(hmi_util.o)
 .comment       0x00000000       0x71 c:/ICPDAS/HMIWorks_Standard/lib/commonlo.a(ladder2c.o)
 .comment       0x00000000       0x71 c:/ICPDAS/HMIWorks_Standard/lib/commonlo.a(pvar.o)
 .comment       0x00000000       0x71 c:/ICPDAS/HMIWorks_Standard/lib/commonlo.a(timer.o)
 .comment       0x00000000       0x71 c:/ICPDAS/HMIWorks_Standard/lib/commonlo.a(ustdlib.o)
 .comment       0x00000000       0x71 c:/ICPDAS/HMIWorks_Standard/lib/commonlo.a(widget_init.o)
 .comment       0x00000000       0x71 c:/ICPDAS/HMIWorks_Standard/lib/libgr.a(canvas.o)
 .comment       0x00000000       0x71 c:/ICPDAS/HMIWorks_Standard/lib/libgr.a(checkbox.o)
 .comment       0x00000000       0x71 c:/ICPDAS/HMIWorks_Standard/lib/libgr.a(context.o)
 .comment       0x00000000       0x71 c:/ICPDAS/HMIWorks_Standard/lib/libgr.a(image.o)
 .comment       0x00000000       0x71 c:/ICPDAS/HMIWorks_Standard/lib/libgr.a(line.o)
 .comment       0x00000000       0x71 c:/ICPDAS/HMIWorks_Standard/lib/libgr.a(pushbutton.o)
 .comment       0x00000000       0x71 c:/ICPDAS/HMIWorks_Standard/lib/libgr.a(rectangle.o)
 .comment       0x00000000       0x71 c:/ICPDAS/HMIWorks_Standard/lib/libgr.a(string.o)
 .comment       0x00000000       0x71 c:/ICPDAS/HMIWorks_Standard/lib/libgr.a(widget.o)
 .comment       0x00000000       0x71 c:/ICPDAS/HMIWorks_Standard/lib/libgr.a(hmi_grlib.o)
 .comment       0x00000000       0x71 c:/ICPDAS/HMIWorks_Standard/lib/fonts.a(fontcm18.o)
 .comment       0x00000000       0x71 c:/ICPDAS/HMIWorks_Standard/lib/fonts.a(fontcm18b.o)
 .comment       0x00000000       0x71 c:/ICPDAS/HMIWorks_Standard/lib/fonts.a(fontcm18i.o)
 .comment       0x00000000       0x71 c:/ICPDAS/HMIWorks_Standard/lib/fonts.a(fontcm20b.o)
 .comment       0x00000000       0x71 c:/ICPDAS/HMIWorks_Standard/lib/fonts.a(fontcm22b.o)
 .comment       0x00000000       0x71 c:/ICPDAS/HMIWorks_Standard/lib/fonts.a(fontcm24b.o)
 .comment       0x00000000       0x71 c:/ICPDAS/HMIWorks_Standard/lib/fonts.a(fontcm26b.o)
 .comment       0x00000000       0x71 c:/ICPDAS/HMIWorks_Standard/lib/fonts.a(fontcm30b.o)
 .comment       0x00000000       0x71 c:/ICPDAS/HMIWorks_Standard/lib/fonts.a(fontcm42b.o)
 .comment       0x00000000       0x71 c:/ICPDAS/HMIWorks_Standard/lib/VPD-133.a(hmi_Init.o)
 .comment       0x00000000       0x71 c:/ICPDAS/HMIWorks_Standard/lib/VPD-133.a(hmi_tcp.o)
 .comment       0x00000000       0x71 c:/ICPDAS/HMIWorks_Standard/lib/VPD-133.a(hmi_uart.o)
 .comment       0x00000000       0x71 c:/ICPDAS/HMIWorks_Standard/lib/VPD-133.a(dcon_io.o)
 .comment       0x00000000       0x71 c:/ICPDAS/HMIWorks_Standard/lib/VPD-133.a(vpanel.o)
 .comment       0x00000000       0x71 c:/ICPDAS/HMIWorks_Standard/lib/VPD-133.a(beep.o)
 .comment       0x00000000       0x71 c:/ICPDAS/HMIWorks_Standard/lib/VPD-133.a(mbrtu.o)
 .comment       0x00000000       0x71 c:/ICPDAS/HMIWorks_Standard/lib/VPD-133.a(mbtcp.o)
 .comment       0x00000070       0x22 c:/ICPDAS/HMIWorks_Standard/lib/libdriver.a(flash.o)
                                 0x23 (size before relaxing)
 .comment       0x00000000       0x71 c:/icpdas/hmiworks_standard/gcc/bin/../lib/gcc/arm-none-eabi/4.8.3/../../../../arm-none-eabi/lib/armv7-m/libc.a(tpd_syscalls.o)

.ARM.attributes
                0x00000000       0x35
 .ARM.attributes
                0x00000000       0x33 main.o
 .ARM.attributes
                0x00000033       0x33 _frame0.o
 .ARM.attributes
                0x00000066       0x33 _demarrage.o
 .ARM.attributes
                0x00000099       0x33 _PavetNum.o
 .ARM.attributes
                0x000000cc       0x33 _ConfigModule.o
 .ARM.attributes
                0x000000ff       0x33 _ConfigCapteur.o
 .ARM.attributes
                0x00000132       0x33 _Etalonnage.o
 .ARM.attributes
                0x00000165       0x33 _Seuillage.o
 .ARM.attributes
                0x00000198       0x33 _SeuilUn.o
 .ARM.attributes
                0x000001cb       0x33 _Affichage.o
 .ARM.attributes
                0x000001fe       0x33 _Clavier.o
 .ARM.attributes
                0x00000231       0x33 _Alerte.o
 .ARM.attributes
                0x00000264       0x33 _dict.o
 .ARM.attributes
                0x00000297       0x33 ladder.o
 .ARM.attributes
                0x000002ca       0x33 imagedata.o
 .ARM.attributes
                0x000002fd       0x33 ladder_test_ldx.o
 .ARM.attributes
                0x00000330       0x33 c:/ICPDAS/HMIWorks_Standard/lib/VPD-133/startup_gcc.o
 .ARM.attributes
                0x00000363       0x33 c:/ICPDAS/HMIWorks_Standard/lib/commonlo.a(hmi.o)
 .ARM.attributes
                0x00000396       0x33 c:/ICPDAS/HMIWorks_Standard/lib/commonlo.a(hmi_util.o)
 .ARM.attributes
                0x000003c9       0x33 c:/ICPDAS/HMIWorks_Standard/lib/commonlo.a(ladder2c.o)
 .ARM.attributes
                0x000003fc       0x33 c:/ICPDAS/HMIWorks_Standard/lib/commonlo.a(pvar.o)
 .ARM.attributes
                0x0000042f       0x33 c:/ICPDAS/HMIWorks_Standard/lib/commonlo.a(timer.o)
 .ARM.attributes
                0x00000462       0x33 c:/ICPDAS/HMIWorks_Standard/lib/commonlo.a(ustdlib.o)
 .ARM.attributes
                0x00000495       0x33 c:/ICPDAS/HMIWorks_Standard/lib/commonlo.a(widget_init.o)
 .ARM.attributes
                0x000004c8       0x33 c:/ICPDAS/HMIWorks_Standard/lib/libgr.a(canvas.o)
 .ARM.attributes
                0x000004fb       0x33 c:/ICPDAS/HMIWorks_Standard/lib/libgr.a(checkbox.o)
 .ARM.attributes
                0x0000052e       0x33 c:/ICPDAS/HMIWorks_Standard/lib/libgr.a(context.o)
 .ARM.attributes
                0x00000561       0x33 c:/ICPDAS/HMIWorks_Standard/lib/libgr.a(image.o)
 .ARM.attributes
                0x00000594       0x33 c:/ICPDAS/HMIWorks_Standard/lib/libgr.a(line.o)
 .ARM.attributes
                0x000005c7       0x33 c:/ICPDAS/HMIWorks_Standard/lib/libgr.a(pushbutton.o)
 .ARM.attributes
                0x000005fa       0x33 c:/ICPDAS/HMIWorks_Standard/lib/libgr.a(rectangle.o)
 .ARM.attributes
                0x0000062d       0x33 c:/ICPDAS/HMIWorks_Standard/lib/libgr.a(string.o)
 .ARM.attributes
                0x00000660       0x33 c:/ICPDAS/HMIWorks_Standard/lib/libgr.a(widget.o)
 .ARM.attributes
                0x00000693       0x33 c:/ICPDAS/HMIWorks_Standard/lib/libgr.a(hmi_grlib.o)
 .ARM.attributes
                0x000006c6       0x33 c:/ICPDAS/HMIWorks_Standard/lib/fonts.a(fontcm18.o)
 .ARM.attributes
                0x000006f9       0x33 c:/ICPDAS/HMIWorks_Standard/lib/fonts.a(fontcm18b.o)
 .ARM.attributes
                0x0000072c       0x33 c:/ICPDAS/HMIWorks_Standard/lib/fonts.a(fontcm18i.o)
 .ARM.attributes
                0x0000075f       0x33 c:/ICPDAS/HMIWorks_Standard/lib/fonts.a(fontcm20b.o)
 .ARM.attributes
                0x00000792       0x33 c:/ICPDAS/HMIWorks_Standard/lib/fonts.a(fontcm22b.o)
 .ARM.attributes
                0x000007c5       0x33 c:/ICPDAS/HMIWorks_Standard/lib/fonts.a(fontcm24b.o)
 .ARM.attributes
                0x000007f8       0x33 c:/ICPDAS/HMIWorks_Standard/lib/fonts.a(fontcm26b.o)
 .ARM.attributes
                0x0000082b       0x33 c:/ICPDAS/HMIWorks_Standard/lib/fonts.a(fontcm30b.o)
 .ARM.attributes
                0x0000085e       0x33 c:/ICPDAS/HMIWorks_Standard/lib/fonts.a(fontcm42b.o)
 .ARM.attributes
                0x00000891       0x33 c:/ICPDAS/HMIWorks_Standard/lib/VPD-133.a(hmi_Init.o)
 .ARM.attributes
                0x000008c4       0x33 c:/ICPDAS/HMIWorks_Standard/lib/VPD-133.a(hmi_tcp.o)
 .ARM.attributes
                0x000008f7       0x33 c:/ICPDAS/HMIWorks_Standard/lib/VPD-133.a(hmi_uart.o)
 .ARM.attributes
                0x0000092a       0x33 c:/ICPDAS/HMIWorks_Standard/lib/VPD-133.a(dcon_io.o)
 .ARM.attributes
                0x0000095d       0x33 c:/ICPDAS/HMIWorks_Standard/lib/VPD-133.a(vpanel.o)
 .ARM.attributes
                0x00000990       0x33 c:/ICPDAS/HMIWorks_Standard/lib/VPD-133.a(beep.o)
 .ARM.attributes
                0x000009c3       0x33 c:/ICPDAS/HMIWorks_Standard/lib/VPD-133.a(mbrtu.o)
 .ARM.attributes
                0x000009f6       0x33 c:/ICPDAS/HMIWorks_Standard/lib/VPD-133.a(mbtcp.o)
 .ARM.attributes
                0x00000a29       0x31 c:/ICPDAS/HMIWorks_Standard/lib/libdriver.a(flash.o)
 .ARM.attributes
                0x00000a5a       0x2d c:/icpdas/hmiworks_standard/gcc/bin/../lib/gcc/arm-none-eabi/4.8.3/../../../../arm-none-eabi/lib/armv7-m/libc.a(lib_a-atoi.o)
 .ARM.attributes
                0x00000a87       0x2d c:/icpdas/hmiworks_standard/gcc/bin/../lib/gcc/arm-none-eabi/4.8.3/../../../../arm-none-eabi/lib/armv7-m/libc.a(lib_a-ctype_.o)
 .ARM.attributes
                0x00000ab4       0x2d c:/icpdas/hmiworks_standard/gcc/bin/../lib/gcc/arm-none-eabi/4.8.3/../../../../arm-none-eabi/lib/armv7-m/libc.a(lib_a-malloc.o)
 .ARM.attributes
                0x00000ae1       0x2d c:/icpdas/hmiworks_standard/gcc/bin/../lib/gcc/arm-none-eabi/4.8.3/../../../../arm-none-eabi/lib/armv7-m/libc.a(lib_a-mallocr.o)
 .ARM.attributes
                0x00000b0e       0x1b c:/icpdas/hmiworks_standard/gcc/bin/../lib/gcc/arm-none-eabi/4.8.3/../../../../arm-none-eabi/lib/armv7-m/libc.a(lib_a-memcpy.o)
 .ARM.attributes
                0x00000b29       0x2d c:/icpdas/hmiworks_standard/gcc/bin/../lib/gcc/arm-none-eabi/4.8.3/../../../../arm-none-eabi/lib/armv7-m/libc.a(lib_a-memset.o)
 .ARM.attributes
                0x00000b56       0x2d c:/icpdas/hmiworks_standard/gcc/bin/../lib/gcc/arm-none-eabi/4.8.3/../../../../arm-none-eabi/lib/armv7-m/libc.a(lib_a-mlock.o)
 .ARM.attributes
                0x00000b83       0x2d c:/icpdas/hmiworks_standard/gcc/bin/../lib/gcc/arm-none-eabi/4.8.3/../../../../arm-none-eabi/lib/armv7-m/libc.a(lib_a-sprintf.o)
 .ARM.attributes
                0x00000bb0       0x2d c:/icpdas/hmiworks_standard/gcc/bin/../lib/gcc/arm-none-eabi/4.8.3/../../../../arm-none-eabi/lib/armv7-m/libc.a(lib_a-strcat.o)
 .ARM.attributes
                0x00000bdd       0x1b c:/icpdas/hmiworks_standard/gcc/bin/../lib/gcc/arm-none-eabi/4.8.3/../../../../arm-none-eabi/lib/armv7-m/libc.a(lib_a-strcmp.o)
 .ARM.attributes
                0x00000bf8       0x2d c:/icpdas/hmiworks_standard/gcc/bin/../lib/gcc/arm-none-eabi/4.8.3/../../../../arm-none-eabi/lib/armv7-m/libc.a(lib_a-strcpy.o)
 .ARM.attributes
                0x00000c25       0x2d c:/icpdas/hmiworks_standard/gcc/bin/../lib/gcc/arm-none-eabi/4.8.3/../../../../arm-none-eabi/lib/armv7-m/libc.a(lib_a-strlen.o)
 .ARM.attributes
                0x00000c52       0x2d c:/icpdas/hmiworks_standard/gcc/bin/../lib/gcc/arm-none-eabi/4.8.3/../../../../arm-none-eabi/lib/armv7-m/libc.a(lib_a-strncpy.o)
 .ARM.attributes
                0x00000c7f       0x2d c:/icpdas/hmiworks_standard/gcc/bin/../lib/gcc/arm-none-eabi/4.8.3/../../../../arm-none-eabi/lib/armv7-m/libc.a(lib_a-strtod.o)
 .ARM.attributes
                0x00000cac       0x2d c:/icpdas/hmiworks_standard/gcc/bin/../lib/gcc/arm-none-eabi/4.8.3/../../../../arm-none-eabi/lib/armv7-m/libc.a(lib_a-strtol.o)
 .ARM.attributes
                0x00000cd9       0x2d c:/icpdas/hmiworks_standard/gcc/bin/../lib/gcc/arm-none-eabi/4.8.3/../../../../arm-none-eabi/lib/armv7-m/libc.a(lib_a-svfprintf.o)
 .ARM.attributes
                0x00000d06       0x37 c:/icpdas/hmiworks_standard/gcc/bin/../lib/gcc/arm-none-eabi/4.8.3/../../../../arm-none-eabi/lib/armv7-m/libc.a(tpd_syscalls.o)
 .ARM.attributes
                0x00000d3d       0x2d c:/icpdas/hmiworks_standard/gcc/bin/../lib/gcc/arm-none-eabi/4.8.3/../../../../arm-none-eabi/lib/armv7-m/libc.a(lib_a-dtoa.o)
 .ARM.attributes
                0x00000d6a       0x2d c:/icpdas/hmiworks_standard/gcc/bin/../lib/gcc/arm-none-eabi/4.8.3/../../../../arm-none-eabi/lib/armv7-m/libc.a(lib_a-freer.o)
 .ARM.attributes
                0x00000d97       0x2d c:/icpdas/hmiworks_standard/gcc/bin/../lib/gcc/arm-none-eabi/4.8.3/../../../../arm-none-eabi/lib/armv7-m/libc.a(lib_a-gdtoa-gethex.o)
 .ARM.attributes
                0x00000dc4       0x2d c:/icpdas/hmiworks_standard/gcc/bin/../lib/gcc/arm-none-eabi/4.8.3/../../../../arm-none-eabi/lib/armv7-m/libc.a(lib_a-gdtoa-hexnan.o)
 .ARM.attributes
                0x00000df1       0x2d c:/icpdas/hmiworks_standard/gcc/bin/../lib/gcc/arm-none-eabi/4.8.3/../../../../arm-none-eabi/lib/armv7-m/libc.a(lib_a-impure.o)
 .ARM.attributes
                0x00000e1e       0x2d c:/icpdas/hmiworks_standard/gcc/bin/../lib/gcc/arm-none-eabi/4.8.3/../../../../arm-none-eabi/lib/armv7-m/libc.a(lib_a-locale.o)
 .ARM.attributes
                0x00000e4b       0x2d c:/icpdas/hmiworks_standard/gcc/bin/../lib/gcc/arm-none-eabi/4.8.3/../../../../arm-none-eabi/lib/armv7-m/libc.a(lib_a-memchr-stub.o)
 .ARM.attributes
                0x00000e78       0x2d c:/icpdas/hmiworks_standard/gcc/bin/../lib/gcc/arm-none-eabi/4.8.3/../../../../arm-none-eabi/lib/armv7-m/libc.a(lib_a-mprec.o)
 .ARM.attributes
                0x00000ea5       0x2d c:/icpdas/hmiworks_standard/gcc/bin/../lib/gcc/arm-none-eabi/4.8.3/../../../../arm-none-eabi/lib/armv7-m/libc.a(lib_a-s_fpclassify.o)
 .ARM.attributes
                0x00000ed2       0x2d c:/icpdas/hmiworks_standard/gcc/bin/../lib/gcc/arm-none-eabi/4.8.3/../../../../arm-none-eabi/lib/armv7-m/libc.a(lib_a-sf_nan.o)
 .ARM.attributes
                0x00000eff       0x2d c:/icpdas/hmiworks_standard/gcc/bin/../lib/gcc/arm-none-eabi/4.8.3/../../../../arm-none-eabi/lib/armv7-m/libc.a(lib_a-strncmp.o)
 .ARM.attributes
                0x00000f2c       0x2d c:/icpdas/hmiworks_standard/gcc/bin/../lib/gcc/arm-none-eabi/4.8.3/../../../../arm-none-eabi/lib/armv7-m/libc.a(lib_a-svfiprintf.o)
 .ARM.attributes
                0x00000f59       0x2d c:/icpdas/hmiworks_standard/gcc/bin/../lib/gcc/arm-none-eabi/4.8.3/../../../../arm-none-eabi/lib/armv7-m/libc.a(lib_a-callocr.o)
 .ARM.attributes
                0x00000f86       0x2d c:/icpdas/hmiworks_standard/gcc/bin/../lib/gcc/arm-none-eabi/4.8.3/../../../../arm-none-eabi/lib/armv7-m/libc.a(lib_a-memmove.o)
 .ARM.attributes
                0x00000fb3       0x2d c:/icpdas/hmiworks_standard/gcc/bin/../lib/gcc/arm-none-eabi/4.8.3/../../../../arm-none-eabi/lib/armv7-m/libc.a(lib_a-reallocr.o)
 .ARM.attributes
                0x00000fe0       0x1d c:/icpdas/hmiworks_standard/gcc/bin/../lib/gcc/arm-none-eabi/4.8.3/armv7-m/libgcc.a(_arm_addsubdf3.o)
 .ARM.attributes
                0x00000ffd       0x1d c:/icpdas/hmiworks_standard/gcc/bin/../lib/gcc/arm-none-eabi/4.8.3/armv7-m/libgcc.a(_arm_muldivdf3.o)
 .ARM.attributes
                0x0000101a       0x1d c:/icpdas/hmiworks_standard/gcc/bin/../lib/gcc/arm-none-eabi/4.8.3/armv7-m/libgcc.a(_arm_cmpdf2.o)
 .ARM.attributes
                0x00001037       0x1d c:/icpdas/hmiworks_standard/gcc/bin/../lib/gcc/arm-none-eabi/4.8.3/armv7-m/libgcc.a(_arm_fixdfsi.o)
 .ARM.attributes
                0x00001054       0x1d c:/icpdas/hmiworks_standard/gcc/bin/../lib/gcc/arm-none-eabi/4.8.3/armv7-m/libgcc.a(_arm_fixunsdfsi.o)
 .ARM.attributes
                0x00001071       0x1d c:/icpdas/hmiworks_standard/gcc/bin/../lib/gcc/arm-none-eabi/4.8.3/armv7-m/libgcc.a(_arm_truncdfsf2.o)
 .ARM.attributes
                0x0000108e       0x1d c:/icpdas/hmiworks_standard/gcc/bin/../lib/gcc/arm-none-eabi/4.8.3/armv7-m/libgcc.a(_arm_addsubsf3.o)
 .ARM.attributes
                0x000010ab       0x1d c:/icpdas/hmiworks_standard/gcc/bin/../lib/gcc/arm-none-eabi/4.8.3/armv7-m/libgcc.a(_arm_muldivsf3.o)
 .ARM.attributes
                0x000010c8       0x1d c:/icpdas/hmiworks_standard/gcc/bin/../lib/gcc/arm-none-eabi/4.8.3/armv7-m/libgcc.a(_arm_cmpsf2.o)
 .ARM.attributes
                0x000010e5       0x1d c:/icpdas/hmiworks_standard/gcc/bin/../lib/gcc/arm-none-eabi/4.8.3/armv7-m/libgcc.a(_arm_fixsfsi.o)
 .ARM.attributes
                0x00001102       0x1d c:/icpdas/hmiworks_standard/gcc/bin/../lib/gcc/arm-none-eabi/4.8.3/armv7-m/libgcc.a(_aeabi_uldivmod.o)
 .ARM.attributes
                0x0000111f       0x2d c:/icpdas/hmiworks_standard/gcc/bin/../lib/gcc/arm-none-eabi/4.8.3/armv7-m/libgcc.a(bpabi.o)
 .ARM.attributes
                0x0000114c       0x1d c:/icpdas/hmiworks_standard/gcc/bin/../lib/gcc/arm-none-eabi/4.8.3/armv7-m/libgcc.a(_dvmd_tls.o)
 .ARM.attributes
                0x00001169       0x2d c:/icpdas/hmiworks_standard/gcc/bin/../lib/gcc/arm-none-eabi/4.8.3/armv7-m/libgcc.a(_divdi3.o)
 .ARM.attributes
                0x00001196       0x2d c:/icpdas/hmiworks_standard/gcc/bin/../lib/gcc/arm-none-eabi/4.8.3/armv7-m/libgcc.a(_udivdi3.o)

.debug_frame    0x00000000      0x954
 .debug_frame   0x00000000       0x30 c:/icpdas/hmiworks_standard/gcc/bin/../lib/gcc/arm-none-eabi/4.8.3/../../../../arm-none-eabi/lib/armv7-m/libc.a(lib_a-atoi.o)
 .debug_frame   0x00000030       0x30 c:/icpdas/hmiworks_standard/gcc/bin/../lib/gcc/arm-none-eabi/4.8.3/../../../../arm-none-eabi/lib/armv7-m/libc.a(lib_a-malloc.o)
 .debug_frame   0x00000060       0x38 c:/icpdas/hmiworks_standard/gcc/bin/../lib/gcc/arm-none-eabi/4.8.3/../../../../arm-none-eabi/lib/armv7-m/libc.a(lib_a-mallocr.o)
 .debug_frame   0x00000098       0x2c c:/icpdas/hmiworks_standard/gcc/bin/../lib/gcc/arm-none-eabi/4.8.3/../../../../arm-none-eabi/lib/armv7-m/libc.a(lib_a-memset.o)
 .debug_frame   0x000000c4       0x30 c:/icpdas/hmiworks_standard/gcc/bin/../lib/gcc/arm-none-eabi/4.8.3/../../../../arm-none-eabi/lib/armv7-m/libc.a(lib_a-mlock.o)
 .debug_frame   0x000000f4       0x64 c:/icpdas/hmiworks_standard/gcc/bin/../lib/gcc/arm-none-eabi/4.8.3/../../../../arm-none-eabi/lib/armv7-m/libc.a(lib_a-sprintf.o)
 .debug_frame   0x00000158       0x2c c:/icpdas/hmiworks_standard/gcc/bin/../lib/gcc/arm-none-eabi/4.8.3/../../../../arm-none-eabi/lib/armv7-m/libc.a(lib_a-strcat.o)
 .debug_frame   0x00000184       0x20 c:/icpdas/hmiworks_standard/gcc/bin/../lib/gcc/arm-none-eabi/4.8.3/../../../../arm-none-eabi/lib/armv7-m/libc.a(lib_a-strcpy.o)
 .debug_frame   0x000001a4       0x20 c:/icpdas/hmiworks_standard/gcc/bin/../lib/gcc/arm-none-eabi/4.8.3/../../../../arm-none-eabi/lib/armv7-m/libc.a(lib_a-strlen.o)
 .debug_frame   0x000001c4       0x2c c:/icpdas/hmiworks_standard/gcc/bin/../lib/gcc/arm-none-eabi/4.8.3/../../../../arm-none-eabi/lib/armv7-m/libc.a(lib_a-strncpy.o)
 .debug_frame   0x000001f0       0x88 c:/icpdas/hmiworks_standard/gcc/bin/../lib/gcc/arm-none-eabi/4.8.3/../../../../arm-none-eabi/lib/armv7-m/libc.a(lib_a-strtod.o)
 .debug_frame   0x00000278       0x50 c:/icpdas/hmiworks_standard/gcc/bin/../lib/gcc/arm-none-eabi/4.8.3/../../../../arm-none-eabi/lib/armv7-m/libc.a(lib_a-strtol.o)
 .debug_frame   0x000002c8       0x3c c:/icpdas/hmiworks_standard/gcc/bin/../lib/gcc/arm-none-eabi/4.8.3/../../../../arm-none-eabi/lib/armv7-m/libc.a(lib_a-svfprintf.o)
 .debug_frame   0x00000304       0x64 c:/icpdas/hmiworks_standard/gcc/bin/../lib/gcc/arm-none-eabi/4.8.3/../../../../arm-none-eabi/lib/armv7-m/libc.a(lib_a-dtoa.o)
 .debug_frame   0x00000368       0x50 c:/icpdas/hmiworks_standard/gcc/bin/../lib/gcc/arm-none-eabi/4.8.3/../../../../arm-none-eabi/lib/armv7-m/libc.a(lib_a-freer.o)
 .debug_frame   0x000003b8       0x58 c:/icpdas/hmiworks_standard/gcc/bin/../lib/gcc/arm-none-eabi/4.8.3/../../../../arm-none-eabi/lib/armv7-m/libc.a(lib_a-gdtoa-gethex.o)
 .debug_frame   0x00000410       0x38 c:/icpdas/hmiworks_standard/gcc/bin/../lib/gcc/arm-none-eabi/4.8.3/../../../../arm-none-eabi/lib/armv7-m/libc.a(lib_a-gdtoa-hexnan.o)
 .debug_frame   0x00000448       0x98 c:/icpdas/hmiworks_standard/gcc/bin/../lib/gcc/arm-none-eabi/4.8.3/../../../../arm-none-eabi/lib/armv7-m/libc.a(lib_a-locale.o)
 .debug_frame   0x000004e0       0x2c c:/icpdas/hmiworks_standard/gcc/bin/../lib/gcc/arm-none-eabi/4.8.3/../../../../arm-none-eabi/lib/armv7-m/libc.a(lib_a-memchr-stub.o)
 .debug_frame   0x0000050c      0x228 c:/icpdas/hmiworks_standard/gcc/bin/../lib/gcc/arm-none-eabi/4.8.3/../../../../arm-none-eabi/lib/armv7-m/libc.a(lib_a-mprec.o)
 .debug_frame   0x00000734       0x28 c:/icpdas/hmiworks_standard/gcc/bin/../lib/gcc/arm-none-eabi/4.8.3/../../../../arm-none-eabi/lib/armv7-m/libc.a(lib_a-s_fpclassify.o)
 .debug_frame   0x0000075c       0x20 c:/icpdas/hmiworks_standard/gcc/bin/../lib/gcc/arm-none-eabi/4.8.3/../../../../arm-none-eabi/lib/armv7-m/libc.a(lib_a-sf_nan.o)
 .debug_frame   0x0000077c       0x28 c:/icpdas/hmiworks_standard/gcc/bin/../lib/gcc/arm-none-eabi/4.8.3/../../../../arm-none-eabi/lib/armv7-m/libc.a(lib_a-strncmp.o)
 .debug_frame   0x000007a4       0x64 c:/icpdas/hmiworks_standard/gcc/bin/../lib/gcc/arm-none-eabi/4.8.3/../../../../arm-none-eabi/lib/armv7-m/libc.a(lib_a-svfiprintf.o)
 .debug_frame   0x00000808       0x28 c:/icpdas/hmiworks_standard/gcc/bin/../lib/gcc/arm-none-eabi/4.8.3/../../../../arm-none-eabi/lib/armv7-m/libc.a(lib_a-callocr.o)
 .debug_frame   0x00000830       0x2c c:/icpdas/hmiworks_standard/gcc/bin/../lib/gcc/arm-none-eabi/4.8.3/../../../../arm-none-eabi/lib/armv7-m/libc.a(lib_a-memmove.o)
 .debug_frame   0x0000085c       0x38 c:/icpdas/hmiworks_standard/gcc/bin/../lib/gcc/arm-none-eabi/4.8.3/../../../../arm-none-eabi/lib/armv7-m/libc.a(lib_a-reallocr.o)
 .debug_frame   0x00000894       0x58 c:/icpdas/hmiworks_standard/gcc/bin/../lib/gcc/arm-none-eabi/4.8.3/armv7-m/libgcc.a(bpabi.o)
 .debug_frame   0x000008ec       0x34 c:/icpdas/hmiworks_standard/gcc/bin/../lib/gcc/arm-none-eabi/4.8.3/armv7-m/libgcc.a(_divdi3.o)
 .debug_frame   0x00000920       0x34 c:/icpdas/hmiworks_standard/gcc/bin/../lib/gcc/arm-none-eabi/4.8.3/armv7-m/libgcc.a(_udivdi3.o)
